Archive member included because of file (symbol)

/usr/lib/gcc/avr/4.5.3/avr5/libgcc.a(_mulsi3.o)
                              ./src/DuinoBotKids.v1.xx_0022/Tone.o (__mulsi3)
/usr/lib/gcc/avr/4.5.3/avr5/libgcc.a(_divmodhi4.o)
                              ./src/robotProtocol/commands/FollowLineCommand.o (__divmodhi4)
/usr/lib/gcc/avr/4.5.3/avr5/libgcc.a(_udivmodsi4.o)
                              ./src/robotProtocol/N6.o (__udivmodsi4)
/usr/lib/gcc/avr/4.5.3/avr5/libgcc.a(_divmodsi4.o)
                              ./src/DuinoBotKids.v1.xx_0022/WMath.o (__divmodsi4)
/usr/lib/gcc/avr/4.5.3/avr5/libgcc.a(_exit.o)
                              /usr/lib/gcc/avr/4.5.3/../../../avr/lib/avr5/crtm32u4.o (exit)
/usr/lib/gcc/avr/4.5.3/avr5/libgcc.a(_copy_data.o)
                              ./src/robotProtocol/messages/CommandAcceptedMessage.o (__do_copy_data)
/usr/lib/gcc/avr/4.5.3/avr5/libgcc.a(_clear_bss.o)
                              ./src/robotProtocol/messages/CommandAcceptedMessage.o (__do_clear_bss)
/usr/lib/gcc/avr/4.5.3/avr5/libgcc.a(_ctors.o)
                              ./src/robotProtocol/messages/CommandAcceptedMessage.o (__do_global_ctors)
/usr/lib/gcc/avr/4.5.3/avr5/libgcc.a(_dtors.o)
                              ./src/robotProtocol/messages/CommandAcceptedMessage.o (__do_global_dtors)
/usr/lib/gcc/avr/4.5.3/avr5/libgcc.a(_fixunssfsi.o)
                              ./src/DuinoBotKids.v1.xx_0022/Print.o (__fixunssfsi)
/usr/lib/gcc/avr/4.5.3/avr5/libgcc.a(_addsub_sf.o)
                              ./src/DuinoBotKids.v1.xx_0022/Print.o (__addsf3)
/usr/lib/gcc/avr/4.5.3/avr5/libgcc.a(_mul_sf.o)
                              ./src/DuinoBotKids.v1.xx_0022/DCMotor/DCMotor.o (__mulsf3)
/usr/lib/gcc/avr/4.5.3/avr5/libgcc.a(_div_sf.o)
                              ./src/DuinoBotKids.v1.xx_0022/DCMotor/DCMotor.o (__divsf3)
/usr/lib/gcc/avr/4.5.3/avr5/libgcc.a(_gt_sf.o)
                              ./src/robotProtocol/N6.o (__gtsf2)
/usr/lib/gcc/avr/4.5.3/avr5/libgcc.a(_ge_sf.o)
                              /usr/lib/gcc/avr/4.5.3/avr5/libgcc.a(_fixunssfsi.o) (__gesf2)
/usr/lib/gcc/avr/4.5.3/avr5/libgcc.a(_lt_sf.o)
                              ./src/robotProtocol/N6.o (__ltsf2)
/usr/lib/gcc/avr/4.5.3/avr5/libgcc.a(_si_to_sf.o)
                              ./src/robotProtocol/commands/FollowLineCommand.o (__floatsisf)
/usr/lib/gcc/avr/4.5.3/avr5/libgcc.a(_sf_to_si.o)
                              ./src/robotProtocol/N6.o (__fixsfsi)
/usr/lib/gcc/avr/4.5.3/avr5/libgcc.a(_thenan_sf.o)
                              /usr/lib/gcc/avr/4.5.3/avr5/libgcc.a(_addsub_sf.o) (__thenan_sf)
/usr/lib/gcc/avr/4.5.3/avr5/libgcc.a(_usi_to_sf.o)
                              ./src/DuinoBotKids.v1.xx_0022/Print.o (__floatunsisf)
/usr/lib/gcc/avr/4.5.3/avr5/libgcc.a(_udivmodhi4.o)
                              /usr/lib/gcc/avr/4.5.3/avr5/libgcc.a(_divmodhi4.o) (__udivmodhi4)
/usr/lib/gcc/avr/4.5.3/avr5/libgcc.a(_prologue.o)
                              /usr/lib/gcc/avr/4.5.3/avr5/libgcc.a(_addsub_sf.o) (__prologue_saves__)
/usr/lib/gcc/avr/4.5.3/avr5/libgcc.a(_epilogue.o)
                              /usr/lib/gcc/avr/4.5.3/avr5/libgcc.a(_addsub_sf.o) (__epilogue_restores__)
/usr/lib/gcc/avr/4.5.3/avr5/libgcc.a(_tablejump.o)
                              /usr/lib/gcc/avr/4.5.3/avr5/libgcc.a(_ctors.o) (__tablejump__)
/usr/lib/gcc/avr/4.5.3/avr5/libgcc.a(_clzsi2.o)
                              /usr/lib/gcc/avr/4.5.3/avr5/libgcc.a(_si_to_sf.o) (__clzsi2)
/usr/lib/gcc/avr/4.5.3/avr5/libgcc.a(_pack_sf.o)
                              /usr/lib/gcc/avr/4.5.3/avr5/libgcc.a(_addsub_sf.o) (__pack_f)
/usr/lib/gcc/avr/4.5.3/avr5/libgcc.a(_unpack_sf.o)
                              /usr/lib/gcc/avr/4.5.3/avr5/libgcc.a(_addsub_sf.o) (__unpack_f)
/usr/lib/gcc/avr/4.5.3/avr5/libgcc.a(_fpcmp_parts_sf.o)
                              /usr/lib/gcc/avr/4.5.3/avr5/libgcc.a(_gt_sf.o) (__fpcmp_parts_f)
/usr/lib/gcc/avr/4.5.3/avr5/libgcc.a(_clz.o)
                              /usr/lib/gcc/avr/4.5.3/avr5/libgcc.a(_clzsi2.o) (__clz_tab)
/usr/lib/gcc/avr/4.5.3/../../../avr/lib/avr5/libc.a(malloc.o)
                              ./src/DuinoBotKids.v1.xx_0022/CPPLib.o (malloc)
/usr/lib/gcc/avr/4.5.3/../../../avr/lib/avr5/libc.a(random.o)
                              ./src/DuinoBotKids.v1.xx_0022/WMath.o (random)
/usr/lib/gcc/avr/4.5.3/../../../avr/lib/avr5/libc.a(realloc.o)
                              ./src/DuinoBotKids.v1.xx_0022/WString.o (realloc)
/usr/lib/gcc/avr/4.5.3/../../../avr/lib/avr5/libc.a(strtol.o)
                              ./src/robotProtocol/messages/CommandAcceptedMessage.o (strtol)
/usr/lib/gcc/avr/4.5.3/../../../avr/lib/avr5/libc.a(atol.o)
                              ./src/DuinoBotKids.v1.xx_0022/WString.o (atol)
/usr/lib/gcc/avr/4.5.3/../../../avr/lib/avr5/libc.a(isspace.o)
                              ./src/DuinoBotKids.v1.xx_0022/WString.o (isspace)
/usr/lib/gcc/avr/4.5.3/../../../avr/lib/avr5/libc.a(tolower.o)
                              ./src/DuinoBotKids.v1.xx_0022/WString.o (tolower)
/usr/lib/gcc/avr/4.5.3/../../../avr/lib/avr5/libc.a(toupper.o)
                              ./src/DuinoBotKids.v1.xx_0022/WString.o (toupper)
/usr/lib/gcc/avr/4.5.3/../../../avr/lib/avr5/libc.a(memcpy.o)
                              /usr/lib/gcc/avr/4.5.3/../../../avr/lib/avr5/libc.a(realloc.o) (memcpy)
/usr/lib/gcc/avr/4.5.3/../../../avr/lib/avr5/libc.a(strcat.o)
                              ./src/DuinoBotKids.v1.xx_0022/WString.o (strcat)
/usr/lib/gcc/avr/4.5.3/../../../avr/lib/avr5/libc.a(strchr.o)
                              ./src/DuinoBotKids.v1.xx_0022/WString.o (strchr)
/usr/lib/gcc/avr/4.5.3/../../../avr/lib/avr5/libc.a(strcmp.o)
                              ./src/DuinoBotKids.v1.xx_0022/WString.o (strcmp)
/usr/lib/gcc/avr/4.5.3/../../../avr/lib/avr5/libc.a(strcpy.o)
                              ./src/DuinoBotKids.v1.xx_0022/WString.o (strcpy)
/usr/lib/gcc/avr/4.5.3/../../../avr/lib/avr5/libc.a(strncmp.o)
                              ./src/DuinoBotKids.v1.xx_0022/WString.o (strncmp)
/usr/lib/gcc/avr/4.5.3/../../../avr/lib/avr5/libc.a(strncpy.o)
                              ./src/DuinoBotKids.v1.xx_0022/WString.o (strncpy)
/usr/lib/gcc/avr/4.5.3/../../../avr/lib/avr5/libc.a(strrchr.o)
                              ./src/DuinoBotKids.v1.xx_0022/WString.o (strrchr)
/usr/lib/gcc/avr/4.5.3/../../../avr/lib/avr5/libc.a(strstr.o)
                              ./src/DuinoBotKids.v1.xx_0022/WString.o (strstr)
/usr/lib/gcc/avr/4.5.3/../../../avr/lib/avr5/libc.a(itoa.o)
                              ./src/DuinoBotKids.v1.xx_0022/WString.o (itoa)
/usr/lib/gcc/avr/4.5.3/../../../avr/lib/avr5/libc.a(ltoa.o)
                              ./src/DuinoBotKids.v1.xx_0022/WString.o (ltoa)
/usr/lib/gcc/avr/4.5.3/../../../avr/lib/avr5/libc.a(mulsi10.o)
                              /usr/lib/gcc/avr/4.5.3/../../../avr/lib/avr5/libc.a(atol.o) (__mulsi_const_10)
/usr/lib/gcc/avr/4.5.3/../../../avr/lib/avr5/libc.a(ultoa.o)
                              ./src/DuinoBotKids.v1.xx_0022/WString.o (ultoa)
/usr/lib/gcc/avr/4.5.3/../../../avr/lib/avr5/libc.a(printf.o)
                              ./src/robotProtocol/MessageManager.o (printf)
/usr/lib/gcc/avr/4.5.3/../../../avr/lib/avr5/libc.a(sprintf.o)
                              ./src/robotProtocol/messages/CommandAcceptedMessage.o (sprintf)
/usr/lib/gcc/avr/4.5.3/../../../avr/lib/avr5/libc.a(vfprintf_std.o)
                              /usr/lib/gcc/avr/4.5.3/../../../avr/lib/avr5/libc.a(printf.o) (vfprintf)
/usr/lib/gcc/avr/4.5.3/../../../avr/lib/avr5/libc.a(eerd_byte_atmega32u4.o)
                              ./src/DuinoBotKids.v1.xx_0022/LUFA/Drivers/USB/HighLevel/EndpointStream.o (__eerd_byte_m32u4)
/usr/lib/gcc/avr/4.5.3/../../../avr/lib/avr5/libc.a(eeupd_byte_atmega32u4.o)
                              ./src/DuinoBotKids.v1.xx_0022/LUFA/Drivers/USB/HighLevel/EndpointStream.o (__eeupd_byte_m32u4)
/usr/lib/gcc/avr/4.5.3/../../../avr/lib/avr5/libc.a(errno.o)
                              /usr/lib/gcc/avr/4.5.3/../../../avr/lib/avr5/libc.a(strtol.o) (errno)
/usr/lib/gcc/avr/4.5.3/../../../avr/lib/avr5/libc.a(cty_isfalse.o)
                              /usr/lib/gcc/avr/4.5.3/../../../avr/lib/avr5/libc.a(isspace.o) (__ctype_isfalse)
/usr/lib/gcc/avr/4.5.3/../../../avr/lib/avr5/libc.a(strnlen_P.o)
                              /usr/lib/gcc/avr/4.5.3/../../../avr/lib/avr5/libc.a(vfprintf_std.o) (strnlen_P)
/usr/lib/gcc/avr/4.5.3/../../../avr/lib/avr5/libc.a(strnlen.o)
                              /usr/lib/gcc/avr/4.5.3/../../../avr/lib/avr5/libc.a(vfprintf_std.o) (strnlen)
/usr/lib/gcc/avr/4.5.3/../../../avr/lib/avr5/libc.a(strrev.o)
                              /usr/lib/gcc/avr/4.5.3/../../../avr/lib/avr5/libc.a(itoa.o) (strrev)
/usr/lib/gcc/avr/4.5.3/../../../avr/lib/avr5/libc.a(fputc.o)
                              /usr/lib/gcc/avr/4.5.3/../../../avr/lib/avr5/libc.a(vfprintf_std.o) (fputc)
/usr/lib/gcc/avr/4.5.3/../../../avr/lib/avr5/libc.a(iob.o)
                              /usr/lib/gcc/avr/4.5.3/../../../avr/lib/avr5/libc.a(printf.o) (__iob)
/usr/lib/gcc/avr/4.5.3/../../../avr/lib/avr5/libc.a(ultoa_invert.o)
                              /usr/lib/gcc/avr/4.5.3/../../../avr/lib/avr5/libc.a(vfprintf_std.o) (__ultoa_invert)

Allocating common symbols
Common symbol       size              file

USB_IsInitialized   0x1               ./src/DuinoBotKids.v1.xx_0022/LUFA/Drivers/USB/HighLevel/USBTask.o
USB_CurrentlySelfPowered
                    0x1               ./src/DuinoBotKids.v1.xx_0022/LUFA/Drivers/USB/HighLevel/DeviceStandardReq.o
errno               0x2               /usr/lib/gcc/avr/4.5.3/../../../avr/lib/avr5/libc.a(errno.o)
USB_RemoteWakeupEnabled
                    0x1               ./src/DuinoBotKids.v1.xx_0022/LUFA/Drivers/USB/HighLevel/DeviceStandardReq.o
USB_DeviceState     0x1               ./src/DuinoBotKids.v1.xx_0022/LUFA/Drivers/USB/HighLevel/USBTask.o
__brkval            0x2               /usr/lib/gcc/avr/4.5.3/../../../avr/lib/avr5/libc.a(malloc.o)
USB_ControlRequest  0x8               ./src/DuinoBotKids.v1.xx_0022/LUFA/Drivers/USB/HighLevel/USBTask.o
USB_ConfigurationNumber
                    0x1               ./src/DuinoBotKids.v1.xx_0022/LUFA/Drivers/USB/HighLevel/DeviceStandardReq.o
__flp               0x2               /usr/lib/gcc/avr/4.5.3/../../../avr/lib/avr5/libc.a(malloc.o)
__iob               0x6               /usr/lib/gcc/avr/4.5.3/../../../avr/lib/avr5/libc.a(iob.o)

Discarded input sections

 .data          0x0000000000000000        0x0 /usr/lib/gcc/avr/4.5.3/../../../avr/lib/avr5/crtm32u4.o
 .bss           0x0000000000000000        0x0 /usr/lib/gcc/avr/4.5.3/../../../avr/lib/avr5/crtm32u4.o
 .text          0x0000000000000000        0x0 ./src/robotProtocol/messages/CommandAcceptedMessage.o
 .bss           0x0000000000000000        0x0 ./src/robotProtocol/messages/CommandAcceptedMessage.o
 .text._ZN13RobotProtocol22CommandAcceptedMessageC2EPc
                0x0000000000000000       0x52 ./src/robotProtocol/messages/CommandAcceptedMessage.o
 .text._ZN13RobotProtocol22CommandAcceptedMessage14getAcceptedMidEv
                0x0000000000000000        0x8 ./src/robotProtocol/messages/CommandAcceptedMessage.o
 .text          0x0000000000000000        0x0 ./src/robotProtocol/messages/CommandErrorMessage.o
 .bss           0x0000000000000000        0x0 ./src/robotProtocol/messages/CommandErrorMessage.o
 .text._ZN13RobotProtocol19CommandErrorMessageC2EPc
                0x0000000000000000       0x52 ./src/robotProtocol/messages/CommandErrorMessage.o
 .text._ZN13RobotProtocol19CommandErrorMessage14getRejectedMidEv
                0x0000000000000000        0x8 ./src/robotProtocol/messages/CommandErrorMessage.o
 .text._ZN13RobotProtocol19CommandErrorMessage12getErrorCodeEv
                0x0000000000000000        0x8 ./src/robotProtocol/messages/CommandErrorMessage.o
 .text          0x0000000000000000        0x0 ./src/robotProtocol/messages/CommunicationStartAcknowledgeMessage.o
 .data          0x0000000000000000        0x0 ./src/robotProtocol/messages/CommunicationStartAcknowledgeMessage.o
 .bss           0x0000000000000000        0x0 ./src/robotProtocol/messages/CommunicationStartAcknowledgeMessage.o
 .text._ZN13RobotProtocol36CommunicationStartAcknowledgeMessageC2EPc
                0x0000000000000000       0x52 ./src/robotProtocol/messages/CommunicationStartAcknowledgeMessage.o
 .text          0x0000000000000000        0x0 ./src/robotProtocol/messages/CommunicationStartMessage.o
 .data          0x0000000000000000        0x0 ./src/robotProtocol/messages/CommunicationStartMessage.o
 .bss           0x0000000000000000        0x0 ./src/robotProtocol/messages/CommunicationStartMessage.o
 .text._ZN13RobotProtocol25CommunicationStartMessageC2EPc
                0x0000000000000000       0x52 ./src/robotProtocol/messages/CommunicationStartMessage.o
 .text          0x0000000000000000        0x0 ./src/robotProtocol/messages/CommunicationStopMessage.o
 .data          0x0000000000000000        0x0 ./src/robotProtocol/messages/CommunicationStopMessage.o
 .bss           0x0000000000000000        0x0 ./src/robotProtocol/messages/CommunicationStopMessage.o
 .text._ZN13RobotProtocol24CommunicationStopMessageC2EPc
                0x0000000000000000       0x52 ./src/robotProtocol/messages/CommunicationStopMessage.o
 .text          0x0000000000000000        0x0 ./src/robotProtocol/messages/DestinationReachedMessage.o
 .data          0x0000000000000000        0x0 ./src/robotProtocol/messages/DestinationReachedMessage.o
 .bss           0x0000000000000000        0x0 ./src/robotProtocol/messages/DestinationReachedMessage.o
 .text._ZN13RobotProtocol25DestinationReachedMessageC2EPc
                0x0000000000000000       0x52 ./src/robotProtocol/messages/DestinationReachedMessage.o
 .text          0x0000000000000000        0x0 ./src/robotProtocol/messages/FollowLineMessage.o
 .data          0x0000000000000000        0x0 ./src/robotProtocol/messages/FollowLineMessage.o
 .bss           0x0000000000000000        0x0 ./src/robotProtocol/messages/FollowLineMessage.o
 .text._ZN13RobotProtocol17FollowLineMessageC2EPc
                0x0000000000000000       0x52 ./src/robotProtocol/messages/FollowLineMessage.o
 .text          0x0000000000000000        0x0 ./src/robotProtocol/messages/KeepAliveMessage.o
 .bss           0x0000000000000000        0x0 ./src/robotProtocol/messages/KeepAliveMessage.o
 .text._ZN13RobotProtocol16KeepAliveMessageC2EPc
                0x0000000000000000       0x52 ./src/robotProtocol/messages/KeepAliveMessage.o
 .text._ZN13RobotProtocol16KeepAliveMessage14getBatteryLeftEv
                0x0000000000000000        0x8 ./src/robotProtocol/messages/KeepAliveMessage.o
 .text._ZN13RobotProtocol16KeepAliveMessage14setBatteryLeftEi
                0x0000000000000000        0x8 ./src/robotProtocol/messages/KeepAliveMessage.o
 .text          0x0000000000000000        0x0 ./src/robotProtocol/messages/ReadIRSensorsMessage.o
 .data          0x0000000000000000        0x0 ./src/robotProtocol/messages/ReadIRSensorsMessage.o
 .bss           0x0000000000000000        0x0 ./src/robotProtocol/messages/ReadIRSensorsMessage.o
 .text._ZN13RobotProtocol20ReadIRSensorsMessage11deserializeEPc
                0x0000000000000000       0x18 ./src/robotProtocol/messages/ReadIRSensorsMessage.o
 .text._ZN13RobotProtocol20ReadIRSensorsMessageC2EPc
                0x0000000000000000       0x52 ./src/robotProtocol/messages/ReadIRSensorsMessage.o
 .text          0x0000000000000000        0x0 ./src/robotProtocol/messages/ReadIRSensorsReplyMessage.o
 .bss           0x0000000000000000        0x0 ./src/robotProtocol/messages/ReadIRSensorsReplyMessage.o
 .text._ZN13RobotProtocol25ReadIRSensorsReplyMessage11deserializeEPc
                0x0000000000000000       0x18 ./src/robotProtocol/messages/ReadIRSensorsReplyMessage.o
 .text._ZN13RobotProtocol25ReadIRSensorsReplyMessageC2Eiiiii
                0x0000000000000000       0x66 ./src/robotProtocol/messages/ReadIRSensorsReplyMessage.o
 .text._ZN13RobotProtocol25ReadIRSensorsReplyMessageC2EPc
                0x0000000000000000       0x52 ./src/robotProtocol/messages/ReadIRSensorsReplyMessage.o
 .text._ZN13RobotProtocol25ReadIRSensorsReplyMessage12getLeftValueEv
                0x0000000000000000        0x8 ./src/robotProtocol/messages/ReadIRSensorsReplyMessage.o
 .text._ZN13RobotProtocol25ReadIRSensorsReplyMessage13getRightValueEv
                0x0000000000000000        0x8 ./src/robotProtocol/messages/ReadIRSensorsReplyMessage.o
 .text._ZN13RobotProtocol25ReadIRSensorsReplyMessage11getTopValueEv
                0x0000000000000000        0x8 ./src/robotProtocol/messages/ReadIRSensorsReplyMessage.o
 .text._ZN13RobotProtocol25ReadIRSensorsReplyMessage12setLeftValueEi
                0x0000000000000000        0x8 ./src/robotProtocol/messages/ReadIRSensorsReplyMessage.o
 .text._ZN13RobotProtocol25ReadIRSensorsReplyMessage13setRightValueEi
                0x0000000000000000        0x8 ./src/robotProtocol/messages/ReadIRSensorsReplyMessage.o
 .text._ZN13RobotProtocol25ReadIRSensorsReplyMessage11setTopValueEi
                0x0000000000000000        0x8 ./src/robotProtocol/messages/ReadIRSensorsReplyMessage.o
 .text          0x0000000000000000        0x0 ./src/robotProtocol/messages/ReadUSSensorMessage.o
 .data          0x0000000000000000        0x0 ./src/robotProtocol/messages/ReadUSSensorMessage.o
 .bss           0x0000000000000000        0x0 ./src/robotProtocol/messages/ReadUSSensorMessage.o
 .text._ZN13RobotProtocol19ReadUSSensorMessage11deserializeEPc
                0x0000000000000000       0x18 ./src/robotProtocol/messages/ReadUSSensorMessage.o
 .text._ZN13RobotProtocol19ReadUSSensorMessageC2EPc
                0x0000000000000000       0x52 ./src/robotProtocol/messages/ReadUSSensorMessage.o
 .text          0x0000000000000000        0x0 ./src/robotProtocol/messages/ReadUSSensorReplyMessage.o
 .bss           0x0000000000000000        0x0 ./src/robotProtocol/messages/ReadUSSensorReplyMessage.o
 .text._ZN13RobotProtocol24ReadUSSensorReplyMessage11deserializeEPc
                0x0000000000000000       0x18 ./src/robotProtocol/messages/ReadUSSensorReplyMessage.o
 .text._ZN13RobotProtocol24ReadUSSensorReplyMessageC2EPc
                0x0000000000000000       0x52 ./src/robotProtocol/messages/ReadUSSensorReplyMessage.o
 .text._ZN13RobotProtocol24ReadUSSensorReplyMessage11getDistanceEv
                0x0000000000000000        0x8 ./src/robotProtocol/messages/ReadUSSensorReplyMessage.o
 .text._ZN13RobotProtocol24ReadUSSensorReplyMessage11setDistanceEi
                0x0000000000000000        0x8 ./src/robotProtocol/messages/ReadUSSensorReplyMessage.o
 .text          0x0000000000000000        0x0 ./src/robotProtocol/messages/ReusableMessageProxy.o
 .data          0x0000000000000000        0x0 ./src/robotProtocol/messages/ReusableMessageProxy.o
 .bss           0x0000000000000000        0x0 ./src/robotProtocol/messages/ReusableMessageProxy.o
 .text._ZN13RobotProtocol20ReusableMessageProxyD2Ev
                0x0000000000000000        0xc ./src/robotProtocol/messages/ReusableMessageProxy.o
 .text._ZN13RobotProtocol20ReusableMessageProxyD0Ev
                0x0000000000000000       0x10 ./src/robotProtocol/messages/ReusableMessageProxy.o
 .text._ZN13RobotProtocol20ReusableMessageProxyC2Ev
                0x0000000000000000        0xc ./src/robotProtocol/messages/ReusableMessageProxy.o
 .rodata._ZTVN13RobotProtocol20ReusableMessageProxyE
                0x0000000000000000        0x8 ./src/robotProtocol/messages/ReusableMessageProxy.o
 .text          0x0000000000000000        0x0 ./src/robotProtocol/messages/RobotLostMessage.o
 .data          0x0000000000000000        0x0 ./src/robotProtocol/messages/RobotLostMessage.o
 .bss           0x0000000000000000        0x0 ./src/robotProtocol/messages/RobotLostMessage.o
 .text._ZN13RobotProtocol16RobotLostMessageC2EPc
                0x0000000000000000       0x52 ./src/robotProtocol/messages/RobotLostMessage.o
 .text          0x0000000000000000        0x0 ./src/robotProtocol/messages/RobotStatusMessage.o
 .bss           0x0000000000000000        0x0 ./src/robotProtocol/messages/RobotStatusMessage.o
 .text._ZN13RobotProtocol18RobotStatusMessage11deserializeEPc
                0x0000000000000000       0x18 ./src/robotProtocol/messages/RobotStatusMessage.o
 .text._ZN13RobotProtocol18RobotStatusMessageC2Eiiiiiii
                0x0000000000000000       0x7e ./src/robotProtocol/messages/RobotStatusMessage.o
 .text._ZN13RobotProtocol18RobotStatusMessageC2EPc
                0x0000000000000000       0x52 ./src/robotProtocol/messages/RobotStatusMessage.o
 .text._ZN13RobotProtocol18RobotStatusMessage17getLeftSpeedValueEv
                0x0000000000000000        0x8 ./src/robotProtocol/messages/RobotStatusMessage.o
 .text._ZN13RobotProtocol18RobotStatusMessage18getRightSpeedValueEv
                0x0000000000000000        0x8 ./src/robotProtocol/messages/RobotStatusMessage.o
 .text._ZN13RobotProtocol18RobotStatusMessage14getLeftIRValueEv
                0x0000000000000000        0x8 ./src/robotProtocol/messages/RobotStatusMessage.o
 .text._ZN13RobotProtocol18RobotStatusMessage15getRightIRValueEv
                0x0000000000000000        0x8 ./src/robotProtocol/messages/RobotStatusMessage.o
 .text._ZN13RobotProtocol18RobotStatusMessage15getBatteryValueEv
                0x0000000000000000        0x8 ./src/robotProtocol/messages/RobotStatusMessage.o
 .text._ZN13RobotProtocol18RobotStatusMessage17setLeftSpeedValueEi
                0x0000000000000000        0x8 ./src/robotProtocol/messages/RobotStatusMessage.o
 .text._ZN13RobotProtocol18RobotStatusMessage18setRightSpeedValueEi
                0x0000000000000000        0x8 ./src/robotProtocol/messages/RobotStatusMessage.o
 .text._ZN13RobotProtocol18RobotStatusMessage14setLeftIRValueEi
                0x0000000000000000        0x8 ./src/robotProtocol/messages/RobotStatusMessage.o
 .text._ZN13RobotProtocol18RobotStatusMessage15setRightIRValueEi
                0x0000000000000000        0x8 ./src/robotProtocol/messages/RobotStatusMessage.o
 .text._ZN13RobotProtocol18RobotStatusMessage15setBatteryValueEi
                0x0000000000000000        0x8 ./src/robotProtocol/messages/RobotStatusMessage.o
 .text          0x0000000000000000        0x0 ./src/robotProtocol/messages/SetMotorSpeedMessage.o
 .bss           0x0000000000000000        0x0 ./src/robotProtocol/messages/SetMotorSpeedMessage.o
 .text._ZN13RobotProtocol20SetMotorSpeedMessageC2EPc
                0x0000000000000000       0x52 ./src/robotProtocol/messages/SetMotorSpeedMessage.o
 .text          0x0000000000000000        0x0 ./src/robotProtocol/messages/TurnAroundMessage.o
 .data          0x0000000000000000        0x0 ./src/robotProtocol/messages/TurnAroundMessage.o
 .bss           0x0000000000000000        0x0 ./src/robotProtocol/messages/TurnAroundMessage.o
 .text._ZN13RobotProtocol17TurnAroundMessageC2EPc
                0x0000000000000000       0x52 ./src/robotProtocol/messages/TurnAroundMessage.o
 .text          0x0000000000000000        0x0 ./src/robotProtocol/messages/TurnLeftMessage.o
 .data          0x0000000000000000        0x0 ./src/robotProtocol/messages/TurnLeftMessage.o
 .bss           0x0000000000000000        0x0 ./src/robotProtocol/messages/TurnLeftMessage.o
 .text._ZN13RobotProtocol15TurnLeftMessageC2EPc
                0x0000000000000000       0x52 ./src/robotProtocol/messages/TurnLeftMessage.o
 .text          0x0000000000000000        0x0 ./src/robotProtocol/messages/TurnRightMessage.o
 .data          0x0000000000000000        0x0 ./src/robotProtocol/messages/TurnRightMessage.o
 .bss           0x0000000000000000        0x0 ./src/robotProtocol/messages/TurnRightMessage.o
 .text._ZN13RobotProtocol16TurnRightMessageC2EPc
                0x0000000000000000       0x52 ./src/robotProtocol/messages/TurnRightMessage.o
 .text          0x0000000000000000        0x0 ./src/robotProtocol/commands/FollowLineCommand.o
 .data          0x0000000000000000        0x0 ./src/robotProtocol/commands/FollowLineCommand.o
 .bss           0x0000000000000000        0x0 ./src/robotProtocol/commands/FollowLineCommand.o
 .text          0x0000000000000000        0x0 ./src/robotProtocol/commands/ReadIRSensorsCommand.o
 .data          0x0000000000000000        0x0 ./src/robotProtocol/commands/ReadIRSensorsCommand.o
 .bss           0x0000000000000000        0x0 ./src/robotProtocol/commands/ReadIRSensorsCommand.o
 .text._ZN13RobotProtocol20ReadIRSensorsCommand12isContinuousEv
                0x0000000000000000        0x4 ./src/robotProtocol/commands/ReadIRSensorsCommand.o
 .text._ZN13RobotProtocol20ReadIRSensorsCommand5resetEv
                0x0000000000000000        0x8 ./src/robotProtocol/commands/ReadIRSensorsCommand.o
 .text._ZN13RobotProtocol20ReadIRSensorsCommand16resetFromMessageEPNS_7MessageE
                0x0000000000000000        0x8 ./src/robotProtocol/commands/ReadIRSensorsCommand.o
 .text._ZN13RobotProtocol20ReadIRSensorsCommand7executeEi
                0x0000000000000000        0x2 ./src/robotProtocol/commands/ReadIRSensorsCommand.o
 .text._ZN13RobotProtocol20ReadIRSensorsCommandD2Ev
                0x0000000000000000       0x30 ./src/robotProtocol/commands/ReadIRSensorsCommand.o
 .text._ZN13RobotProtocol20ReadIRSensorsCommandD0Ev
                0x0000000000000000       0x16 ./src/robotProtocol/commands/ReadIRSensorsCommand.o
 .text._ZN13RobotProtocol20ReadIRSensorsCommandC2EPNS_2N6E
                0x0000000000000000       0x18 ./src/robotProtocol/commands/ReadIRSensorsCommand.o
 .rodata._ZTVN13RobotProtocol20ReadIRSensorsCommandE
                0x0000000000000000       0x10 ./src/robotProtocol/commands/ReadIRSensorsCommand.o
 .text          0x0000000000000000        0x0 ./src/robotProtocol/commands/ReadUSSensorCommand.o
 .data          0x0000000000000000        0x0 ./src/robotProtocol/commands/ReadUSSensorCommand.o
 .bss           0x0000000000000000        0x0 ./src/robotProtocol/commands/ReadUSSensorCommand.o
 .text._ZN13RobotProtocol19ReadUSSensorCommand12isContinuousEv
                0x0000000000000000        0x4 ./src/robotProtocol/commands/ReadUSSensorCommand.o
 .text._ZN13RobotProtocol19ReadUSSensorCommand5resetEv
                0x0000000000000000        0x8 ./src/robotProtocol/commands/ReadUSSensorCommand.o
 .text._ZN13RobotProtocol19ReadUSSensorCommand16resetFromMessageEPNS_7MessageE
                0x0000000000000000        0x8 ./src/robotProtocol/commands/ReadUSSensorCommand.o
 .text._ZN13RobotProtocol19ReadUSSensorCommand7executeEi
                0x0000000000000000        0x2 ./src/robotProtocol/commands/ReadUSSensorCommand.o
 .text._ZN13RobotProtocol19ReadUSSensorCommandD2Ev
                0x0000000000000000       0x30 ./src/robotProtocol/commands/ReadUSSensorCommand.o
 .text._ZN13RobotProtocol19ReadUSSensorCommandD0Ev
                0x0000000000000000       0x16 ./src/robotProtocol/commands/ReadUSSensorCommand.o
 .text._ZN13RobotProtocol19ReadUSSensorCommandC2EPNS_2N6E
                0x0000000000000000       0x18 ./src/robotProtocol/commands/ReadUSSensorCommand.o
 .rodata._ZTVN13RobotProtocol19ReadUSSensorCommandE
                0x0000000000000000       0x10 ./src/robotProtocol/commands/ReadUSSensorCommand.o
 .text          0x0000000000000000        0x0 ./src/robotProtocol/commands/SendKeepAliveCommand.o
 .data          0x0000000000000000        0x0 ./src/robotProtocol/commands/SendKeepAliveCommand.o
 .bss           0x0000000000000000        0x0 ./src/robotProtocol/commands/SendKeepAliveCommand.o
 .text._ZN13RobotProtocol20SendKeepAliveCommand12isContinuousEv
                0x0000000000000000        0x4 ./src/robotProtocol/commands/SendKeepAliveCommand.o
 .text._ZN13RobotProtocol20SendKeepAliveCommand5resetEv
                0x0000000000000000        0x6 ./src/robotProtocol/commands/SendKeepAliveCommand.o
 .text._ZN13RobotProtocol20SendKeepAliveCommand16resetFromMessageEPNS_7MessageE
                0x0000000000000000        0x2 ./src/robotProtocol/commands/SendKeepAliveCommand.o
 .text._ZN13RobotProtocol20SendKeepAliveCommand7executeEi
                0x0000000000000000       0x1c ./src/robotProtocol/commands/SendKeepAliveCommand.o
 .text._ZN13RobotProtocol20SendKeepAliveCommandD2Ev
                0x0000000000000000       0x10 ./src/robotProtocol/commands/SendKeepAliveCommand.o
 .text._ZN13RobotProtocol20SendKeepAliveCommandD0Ev
                0x0000000000000000       0x20 ./src/robotProtocol/commands/SendKeepAliveCommand.o
 .text._ZN13RobotProtocol20SendKeepAliveCommandC2EPNS_2N6EPNS_7MessageE
                0x0000000000000000       0x26 ./src/robotProtocol/commands/SendKeepAliveCommand.o
 .rodata._ZTVN13RobotProtocol20SendKeepAliveCommandE
                0x0000000000000000       0x10 ./src/robotProtocol/commands/SendKeepAliveCommand.o
 .text          0x0000000000000000        0x0 ./src/robotProtocol/commands/SetMotorSpeedCommand.o
 .data          0x0000000000000000        0x0 ./src/robotProtocol/commands/SetMotorSpeedCommand.o
 .bss           0x0000000000000000        0x0 ./src/robotProtocol/commands/SetMotorSpeedCommand.o
 .text._ZN13RobotProtocol20SetMotorSpeedCommand12getLeftSpeedEv
                0x0000000000000000        0x8 ./src/robotProtocol/commands/SetMotorSpeedCommand.o
 .text._ZN13RobotProtocol20SetMotorSpeedCommand13getRightSpeedEv
                0x0000000000000000        0x8 ./src/robotProtocol/commands/SetMotorSpeedCommand.o
 .text          0x0000000000000000        0x0 ./src/robotProtocol/commands/TurnCommand.o
 .data          0x0000000000000000        0x0 ./src/robotProtocol/commands/TurnCommand.o
 .bss           0x0000000000000000        0x0 ./src/robotProtocol/commands/TurnCommand.o
 .text          0x0000000000000000        0x0 ./src/robotProtocol/Command.o
 .data          0x0000000000000000        0x0 ./src/robotProtocol/Command.o
 .bss           0x0000000000000000        0x0 ./src/robotProtocol/Command.o
 .text          0x0000000000000000        0x0 ./src/robotProtocol/Message.o
 .bss           0x0000000000000000        0x0 ./src/robotProtocol/Message.o
 .text._ZN13RobotProtocol7Message11getRevisionEv
                0x0000000000000000        0x8 ./src/robotProtocol/Message.o
 .text._ZN13RobotProtocol7Message8getFlagsEv
                0x0000000000000000        0x8 ./src/robotProtocol/Message.o
 .text._ZN13RobotProtocol7Message12getToAddressEv
                0x0000000000000000        0x8 ./src/robotProtocol/Message.o
 .text._ZN13RobotProtocol7Message14getFromAddressEv
                0x0000000000000000        0x8 ./src/robotProtocol/Message.o
 .text._ZN13RobotProtocol7MessageC2EPc
                0x0000000000000000       0x10 ./src/robotProtocol/Message.o
 .text          0x0000000000000000        0x0 ./src/robotProtocol/MessageManager.o
 .bss           0x0000000000000000        0x0 ./src/robotProtocol/MessageManager.o
 .text._ZN13RobotProtocol14MessageManager11sendMessageEPci
                0x0000000000000000       0x1a ./src/robotProtocol/MessageManager.o
 .text._ZN13RobotProtocol14MessageManager11deserializeEPci
                0x0000000000000000       0x86 ./src/robotProtocol/MessageManager.o
 .text._ZN13RobotProtocol14MessageManager14getNextMessageEv
                0x0000000000000000       0x6c ./src/robotProtocol/MessageManager.o
 .text          0x0000000000000000        0x0 ./src/robotProtocol/MessageReceiver.o
 .data          0x0000000000000000        0x0 ./src/robotProtocol/MessageReceiver.o
 .bss           0x0000000000000000        0x0 ./src/robotProtocol/MessageReceiver.o
 .text          0x0000000000000000        0x0 ./src/robotProtocol/MessageSender.o
 .data          0x0000000000000000        0x0 ./src/robotProtocol/MessageSender.o
 .bss           0x0000000000000000        0x0 ./src/robotProtocol/MessageSender.o
 .text          0x0000000000000000        0x0 ./src/robotProtocol/N6.o
 .bss           0x0000000000000000        0x0 ./src/robotProtocol/N6.o
 .text._ZN13RobotProtocol2N69beepErrorEv
                0x0000000000000000       0x20 ./src/robotProtocol/N6.o
 .text._ZN13RobotProtocol2N6C2EPNS_14MessageManagerEii
                0x0000000000000000       0x48 ./src/robotProtocol/N6.o
 .text._ZN13RobotProtocol2N613beepMasterSetEv
                0x0000000000000000       0x3e ./src/robotProtocol/N6.o
 .text._ZN13RobotProtocol2N615beepMasterClearEv
                0x0000000000000000       0x3e ./src/robotProtocol/N6.o
 .text._ZN13RobotProtocol2N621processCommandMessageEPNS_7MessageEi
                0x0000000000000000      0x112 ./src/robotProtocol/N6.o
 .text._ZN13RobotProtocol2N610setCommandEi
                0x0000000000000000       0x92 ./src/robotProtocol/N6.o
 .text._ZN13RobotProtocol2N617getLeftMotorSpeedEv
                0x0000000000000000       0x1a ./src/robotProtocol/N6.o
 .text._ZN13RobotProtocol2N618getRightMotorSpeedEv
                0x0000000000000000       0x1a ./src/robotProtocol/N6.o
 .text._ZN13RobotProtocol2N614getTopIRSensorEv
                0x0000000000000000       0x14 ./src/robotProtocol/N6.o
 .text._ZN13RobotProtocol2N614getBatteryLeftEv
                0x0000000000000000        0x8 ./src/robotProtocol/N6.o
 .text._ZN13RobotProtocol2N634getDistanceToObstacleInCentimetersEv
                0x0000000000000000       0x62 ./src/robotProtocol/N6.o
 .text._ZN13RobotProtocol2N619getUSSensorDistanceEv
                0x0000000000000000        0x8 ./src/robotProtocol/N6.o
 .text._ZN13RobotProtocol2N611isGoingLeftEv
                0x0000000000000000       0x42 ./src/robotProtocol/N6.o
 .text._ZN13RobotProtocol2N612isGoingRightEv
                0x0000000000000000       0x42 ./src/robotProtocol/N6.o
 .text._ZN13RobotProtocol2N615isAlmostOnBlackEv
                0x0000000000000000       0x82 ./src/robotProtocol/N6.o
 .text._ZN13RobotProtocol2N614isRightOnBlackEv
                0x0000000000000000       0x1e ./src/robotProtocol/N6.o
 .text._ZN13RobotProtocol2N69isOnTrackEv
                0x0000000000000000        0xa ./src/robotProtocol/N6.o
 .text          0x0000000000000000        0x0 ./src/robotProtocol/SerialSenderReceiver.o
 .data          0x0000000000000000        0x0 ./src/robotProtocol/SerialSenderReceiver.o
 .bss           0x0000000000000000        0x0 ./src/robotProtocol/SerialSenderReceiver.o
 .text          0x0000000000000000        0x0 ./src/DuinoBotKids.v1.xx_0022/LUFA/Drivers/USB/LowLevel/Device.o
 .data          0x0000000000000000        0x0 ./src/DuinoBotKids.v1.xx_0022/LUFA/Drivers/USB/LowLevel/Device.o
 .bss           0x0000000000000000        0x0 ./src/DuinoBotKids.v1.xx_0022/LUFA/Drivers/USB/LowLevel/Device.o
 .text.USB_Device_SendRemoteWakeup
                0x0000000000000000       0x1e ./src/DuinoBotKids.v1.xx_0022/LUFA/Drivers/USB/LowLevel/Device.o
 .text          0x0000000000000000        0x0 ./src/DuinoBotKids.v1.xx_0022/LUFA/Drivers/USB/LowLevel/Endpoint.o
 .data          0x0000000000000000        0x0 ./src/DuinoBotKids.v1.xx_0022/LUFA/Drivers/USB/LowLevel/Endpoint.o
 .bss           0x0000000000000000        0x0 ./src/DuinoBotKids.v1.xx_0022/LUFA/Drivers/USB/LowLevel/Endpoint.o
 .text.Endpoint_ClearEndpoints
                0x0000000000000000       0x28 ./src/DuinoBotKids.v1.xx_0022/LUFA/Drivers/USB/LowLevel/Endpoint.o
 .text          0x0000000000000000        0x0 ./src/DuinoBotKids.v1.xx_0022/LUFA/Drivers/USB/LowLevel/Host.o
 .data          0x0000000000000000        0x0 ./src/DuinoBotKids.v1.xx_0022/LUFA/Drivers/USB/LowLevel/Host.o
 .bss           0x0000000000000000        0x0 ./src/DuinoBotKids.v1.xx_0022/LUFA/Drivers/USB/LowLevel/Host.o
 .text          0x0000000000000000        0x0 ./src/DuinoBotKids.v1.xx_0022/LUFA/Drivers/USB/LowLevel/Pipe.o
 .data          0x0000000000000000        0x0 ./src/DuinoBotKids.v1.xx_0022/LUFA/Drivers/USB/LowLevel/Pipe.o
 .bss           0x0000000000000000        0x0 ./src/DuinoBotKids.v1.xx_0022/LUFA/Drivers/USB/LowLevel/Pipe.o
 .text          0x0000000000000000        0x0 ./src/DuinoBotKids.v1.xx_0022/LUFA/Drivers/USB/LowLevel/USBController.o
 .data          0x0000000000000000        0x0 ./src/DuinoBotKids.v1.xx_0022/LUFA/Drivers/USB/LowLevel/USBController.o
 .bss           0x0000000000000000        0x0 ./src/DuinoBotKids.v1.xx_0022/LUFA/Drivers/USB/LowLevel/USBController.o
 .text.USB_ShutDown
                0x0000000000000000       0x34 ./src/DuinoBotKids.v1.xx_0022/LUFA/Drivers/USB/LowLevel/USBController.o
 .text          0x0000000000000000        0x0 ./src/DuinoBotKids.v1.xx_0022/LUFA/Drivers/USB/LowLevel/USBInterrupt.o
 .data          0x0000000000000000        0x0 ./src/DuinoBotKids.v1.xx_0022/LUFA/Drivers/USB/LowLevel/USBInterrupt.o
 .bss           0x0000000000000000        0x0 ./src/DuinoBotKids.v1.xx_0022/LUFA/Drivers/USB/LowLevel/USBInterrupt.o
 .text          0x0000000000000000        0x0 ./src/DuinoBotKids.v1.xx_0022/LUFA/Drivers/USB/HighLevel/ConfigDescriptor.o
 .data          0x0000000000000000        0x0 ./src/DuinoBotKids.v1.xx_0022/LUFA/Drivers/USB/HighLevel/ConfigDescriptor.o
 .bss           0x0000000000000000        0x0 ./src/DuinoBotKids.v1.xx_0022/LUFA/Drivers/USB/HighLevel/ConfigDescriptor.o
 .text.USB_GetNextDescriptorOfType
                0x0000000000000000       0x3a ./src/DuinoBotKids.v1.xx_0022/LUFA/Drivers/USB/HighLevel/ConfigDescriptor.o
 .text.USB_GetNextDescriptorOfTypeBefore
                0x0000000000000000       0x44 ./src/DuinoBotKids.v1.xx_0022/LUFA/Drivers/USB/HighLevel/ConfigDescriptor.o
 .text.USB_GetNextDescriptorOfTypeAfter
                0x0000000000000000       0x34 ./src/DuinoBotKids.v1.xx_0022/LUFA/Drivers/USB/HighLevel/ConfigDescriptor.o
 .text.USB_GetNextDescriptorComp
                0x0000000000000000       0x78 ./src/DuinoBotKids.v1.xx_0022/LUFA/Drivers/USB/HighLevel/ConfigDescriptor.o
 .text          0x0000000000000000        0x0 ./src/DuinoBotKids.v1.xx_0022/LUFA/Drivers/USB/HighLevel/DeviceStandardReq.o
 .data          0x0000000000000000        0x0 ./src/DuinoBotKids.v1.xx_0022/LUFA/Drivers/USB/HighLevel/DeviceStandardReq.o
 .bss           0x0000000000000000        0x0 ./src/DuinoBotKids.v1.xx_0022/LUFA/Drivers/USB/HighLevel/DeviceStandardReq.o
 .text          0x0000000000000000        0x0 ./src/DuinoBotKids.v1.xx_0022/LUFA/Drivers/USB/HighLevel/EndpointStream.o
 .data          0x0000000000000000        0x0 ./src/DuinoBotKids.v1.xx_0022/LUFA/Drivers/USB/HighLevel/EndpointStream.o
 .bss           0x0000000000000000        0x0 ./src/DuinoBotKids.v1.xx_0022/LUFA/Drivers/USB/HighLevel/EndpointStream.o
 .text.Endpoint_Discard_Stream
                0x0000000000000000       0x66 ./src/DuinoBotKids.v1.xx_0022/LUFA/Drivers/USB/HighLevel/EndpointStream.o
 .text.Endpoint_Write_Stream_LE
                0x0000000000000000       0x92 ./src/DuinoBotKids.v1.xx_0022/LUFA/Drivers/USB/HighLevel/EndpointStream.o
 .text.Endpoint_Write_PStream_LE
                0x0000000000000000       0x94 ./src/DuinoBotKids.v1.xx_0022/LUFA/Drivers/USB/HighLevel/EndpointStream.o
 .text.Endpoint_Write_EStream_LE
                0x0000000000000000       0xa4 ./src/DuinoBotKids.v1.xx_0022/LUFA/Drivers/USB/HighLevel/EndpointStream.o
 .text.Endpoint_Write_Stream_BE
                0x0000000000000000       0x8a ./src/DuinoBotKids.v1.xx_0022/LUFA/Drivers/USB/HighLevel/EndpointStream.o
 .text.Endpoint_Write_EStream_BE
                0x0000000000000000       0x92 ./src/DuinoBotKids.v1.xx_0022/LUFA/Drivers/USB/HighLevel/EndpointStream.o
 .text.Endpoint_Write_PStream_BE
                0x0000000000000000       0x8a ./src/DuinoBotKids.v1.xx_0022/LUFA/Drivers/USB/HighLevel/EndpointStream.o
 .text.Endpoint_Read_Stream_LE
                0x0000000000000000       0x92 ./src/DuinoBotKids.v1.xx_0022/LUFA/Drivers/USB/HighLevel/EndpointStream.o
 .text.Endpoint_Read_EStream_LE
                0x0000000000000000       0xa4 ./src/DuinoBotKids.v1.xx_0022/LUFA/Drivers/USB/HighLevel/EndpointStream.o
 .text.Endpoint_Read_Stream_BE
                0x0000000000000000       0x8a ./src/DuinoBotKids.v1.xx_0022/LUFA/Drivers/USB/HighLevel/EndpointStream.o
 .text.Endpoint_Read_EStream_BE
                0x0000000000000000       0x94 ./src/DuinoBotKids.v1.xx_0022/LUFA/Drivers/USB/HighLevel/EndpointStream.o
 .text.Endpoint_Write_Control_EStream_LE
                0x0000000000000000       0xdc ./src/DuinoBotKids.v1.xx_0022/LUFA/Drivers/USB/HighLevel/EndpointStream.o
 .text.Endpoint_Write_Control_Stream_BE
                0x0000000000000000       0xbc ./src/DuinoBotKids.v1.xx_0022/LUFA/Drivers/USB/HighLevel/EndpointStream.o
 .text.Endpoint_Write_Control_PStream_BE
                0x0000000000000000       0xc2 ./src/DuinoBotKids.v1.xx_0022/LUFA/Drivers/USB/HighLevel/EndpointStream.o
 .text.Endpoint_Write_Control_EStream_BE
                0x0000000000000000       0xe2 ./src/DuinoBotKids.v1.xx_0022/LUFA/Drivers/USB/HighLevel/EndpointStream.o
 .text.Endpoint_Read_Control_EStream_LE
                0x0000000000000000       0x94 ./src/DuinoBotKids.v1.xx_0022/LUFA/Drivers/USB/HighLevel/EndpointStream.o
 .text.Endpoint_Read_Control_Stream_BE
                0x0000000000000000       0x80 ./src/DuinoBotKids.v1.xx_0022/LUFA/Drivers/USB/HighLevel/EndpointStream.o
 .text.Endpoint_Read_Control_EStream_BE
                0x0000000000000000       0x9c ./src/DuinoBotKids.v1.xx_0022/LUFA/Drivers/USB/HighLevel/EndpointStream.o
 .text          0x0000000000000000        0x0 ./src/DuinoBotKids.v1.xx_0022/LUFA/Drivers/USB/HighLevel/Events.o
 .data          0x0000000000000000        0x0 ./src/DuinoBotKids.v1.xx_0022/LUFA/Drivers/USB/HighLevel/Events.o
 .bss           0x0000000000000000        0x0 ./src/DuinoBotKids.v1.xx_0022/LUFA/Drivers/USB/HighLevel/Events.o
 .text          0x0000000000000000        0x0 ./src/DuinoBotKids.v1.xx_0022/LUFA/Drivers/USB/HighLevel/HostStandardReq.o
 .data          0x0000000000000000        0x0 ./src/DuinoBotKids.v1.xx_0022/LUFA/Drivers/USB/HighLevel/HostStandardReq.o
 .bss           0x0000000000000000        0x0 ./src/DuinoBotKids.v1.xx_0022/LUFA/Drivers/USB/HighLevel/HostStandardReq.o
 .text          0x0000000000000000        0x0 ./src/DuinoBotKids.v1.xx_0022/LUFA/Drivers/USB/HighLevel/PipeStream.o
 .data          0x0000000000000000        0x0 ./src/DuinoBotKids.v1.xx_0022/LUFA/Drivers/USB/HighLevel/PipeStream.o
 .bss           0x0000000000000000        0x0 ./src/DuinoBotKids.v1.xx_0022/LUFA/Drivers/USB/HighLevel/PipeStream.o
 .text          0x0000000000000000        0x0 ./src/DuinoBotKids.v1.xx_0022/LUFA/Drivers/USB/HighLevel/USBTask.o
 .data          0x0000000000000000        0x0 ./src/DuinoBotKids.v1.xx_0022/LUFA/Drivers/USB/HighLevel/USBTask.o
 .bss           0x0000000000000000        0x0 ./src/DuinoBotKids.v1.xx_0022/LUFA/Drivers/USB/HighLevel/USBTask.o
 .text          0x0000000000000000        0x0 ./src/DuinoBotKids.v1.xx_0022/LUFA/Drivers/USB/Class/Device/CDC.o
 .data          0x0000000000000000        0x0 ./src/DuinoBotKids.v1.xx_0022/LUFA/Drivers/USB/Class/Device/CDC.o
 .bss           0x0000000000000000        0x0 ./src/DuinoBotKids.v1.xx_0022/LUFA/Drivers/USB/Class/Device/CDC.o
 .text.CDC_Device_SendString
                0x0000000000000000       0x38 ./src/DuinoBotKids.v1.xx_0022/LUFA/Drivers/USB/Class/Device/CDC.o
 .text.CDC_Device_putchar
                0x0000000000000000       0x20 ./src/DuinoBotKids.v1.xx_0022/LUFA/Drivers/USB/Class/Device/CDC.o
 .text.CDC_Device_BytesReceived
                0x0000000000000000       0x68 ./src/DuinoBotKids.v1.xx_0022/LUFA/Drivers/USB/Class/Device/CDC.o
 .text.CDC_Device_getchar_Blocking
                0x0000000000000000       0x38 ./src/DuinoBotKids.v1.xx_0022/LUFA/Drivers/USB/Class/Device/CDC.o
 .text.CDC_Device_getchar
                0x0000000000000000       0x18 ./src/DuinoBotKids.v1.xx_0022/LUFA/Drivers/USB/Class/Device/CDC.o
 .text.CDC_Device_SendControlLineStateChange
                0x0000000000000000       0x8c ./src/DuinoBotKids.v1.xx_0022/LUFA/Drivers/USB/Class/Device/CDC.o
 .text.CDC_Device_CreateStream
                0x0000000000000000       0x26 ./src/DuinoBotKids.v1.xx_0022/LUFA/Drivers/USB/Class/Device/CDC.o
 .text.CDC_Device_CreateBlockingStream
                0x0000000000000000       0x26 ./src/DuinoBotKids.v1.xx_0022/LUFA/Drivers/USB/Class/Device/CDC.o
 .rodata.C.3.3730
                0x0000000000000000        0x8 ./src/DuinoBotKids.v1.xx_0022/LUFA/Drivers/USB/Class/Device/CDC.o
 .text          0x0000000000000000        0x0 ./src/DuinoBotKids.v1.xx_0022/DCMotor/DCMotor.o
 .data          0x0000000000000000        0x0 ./src/DuinoBotKids.v1.xx_0022/DCMotor/DCMotor.o
 .bss           0x0000000000000000        0x0 ./src/DuinoBotKids.v1.xx_0022/DCMotor/DCMotor.o
 .text._ZN7DCMotor5brakeEv
                0x0000000000000000       0x28 ./src/DuinoBotKids.v1.xx_0022/DCMotor/DCMotor.o
 .text          0x0000000000000000        0x0 ./src/DuinoBotKids.v1.xx_0022/CDCSerial.o
 .data          0x0000000000000000        0x0 ./src/DuinoBotKids.v1.xx_0022/CDCSerial.o
 .bss           0x0000000000000000        0x0 ./src/DuinoBotKids.v1.xx_0022/CDCSerial.o
 .text._ZN9CDCSerialC2EP11ring_buffer
                0x0000000000000000       0x10 ./src/DuinoBotKids.v1.xx_0022/CDCSerial.o
 .text._ZN9CDCSerial3endEv
                0x0000000000000000        0x2 ./src/DuinoBotKids.v1.xx_0022/CDCSerial.o
 .text._ZN9CDCSerial9availableEv
                0x0000000000000000       0x2c ./src/DuinoBotKids.v1.xx_0022/CDCSerial.o
 .text._ZN9CDCSerial4readEv
                0x0000000000000000       0x48 ./src/DuinoBotKids.v1.xx_0022/CDCSerial.o
 .text._ZN9CDCSerial5flushEv
                0x0000000000000000       0x22 ./src/DuinoBotKids.v1.xx_0022/CDCSerial.o
 .text          0x0000000000000000        0x0 ./src/DuinoBotKids.v1.xx_0022/CPPLib.o
 .data          0x0000000000000000        0x0 ./src/DuinoBotKids.v1.xx_0022/CPPLib.o
 .bss           0x0000000000000000        0x0 ./src/DuinoBotKids.v1.xx_0022/CPPLib.o
 .text._ZdaPv   0x0000000000000000        0x6 ./src/DuinoBotKids.v1.xx_0022/CPPLib.o
 .text._Znwj    0x0000000000000000        0x6 ./src/DuinoBotKids.v1.xx_0022/CPPLib.o
 .text._Znaj    0x0000000000000000        0x6 ./src/DuinoBotKids.v1.xx_0022/CPPLib.o
 .text          0x0000000000000000        0x0 ./src/DuinoBotKids.v1.xx_0022/Descriptors.o
 .data          0x0000000000000000        0x0 ./src/DuinoBotKids.v1.xx_0022/Descriptors.o
 .bss           0x0000000000000000        0x0 ./src/DuinoBotKids.v1.xx_0022/Descriptors.o
 .text          0x0000000000000000        0x0 ./src/DuinoBotKids.v1.xx_0022/HardwareSerial.o
 .data          0x0000000000000000        0x0 ./src/DuinoBotKids.v1.xx_0022/HardwareSerial.o
 .bss           0x0000000000000000        0x0 ./src/DuinoBotKids.v1.xx_0022/HardwareSerial.o
 .text._Z10store_charhP11ring_buffer
                0x0000000000000000       0x34 ./src/DuinoBotKids.v1.xx_0022/HardwareSerial.o
 .text._ZN14HardwareSerialC2EP11ring_bufferPVhS3_S3_S3_S3_hhhhh
                0x0000000000000000       0x60 ./src/DuinoBotKids.v1.xx_0022/HardwareSerial.o
 .text._ZN14HardwareSerial3endEv
                0x0000000000000000       0x54 ./src/DuinoBotKids.v1.xx_0022/HardwareSerial.o
 .rodata._ZTV6Stream
                0x0000000000000000       0x12 ./src/DuinoBotKids.v1.xx_0022/HardwareSerial.o
 .text          0x0000000000000000        0x0 ./src/DuinoBotKids.v1.xx_0022/Print.o
 .data          0x0000000000000000        0x2 ./src/DuinoBotKids.v1.xx_0022/Print.o
 .bss           0x0000000000000000        0x0 ./src/DuinoBotKids.v1.xx_0022/Print.o
 .text._ZN5Print5printERK6String
                0x0000000000000000       0x54 ./src/DuinoBotKids.v1.xx_0022/Print.o
 .text._ZN5Print5printEPKc
                0x0000000000000000       0x10 ./src/DuinoBotKids.v1.xx_0022/Print.o
 .text._ZN5Print11printNumberEmh
                0x0000000000000000      0x106 ./src/DuinoBotKids.v1.xx_0022/Print.o
 .text._ZN5Print5printEmi
                0x0000000000000000       0x1e ./src/DuinoBotKids.v1.xx_0022/Print.o
 .text._ZN5Print5printEji
                0x0000000000000000        0xe ./src/DuinoBotKids.v1.xx_0022/Print.o
 .text._ZN5Print5printEhi
                0x0000000000000000       0x10 ./src/DuinoBotKids.v1.xx_0022/Print.o
 .text._ZN5Print5printEli
                0x0000000000000000       0x6c ./src/DuinoBotKids.v1.xx_0022/Print.o
 .text._ZN5Print5printEii
                0x0000000000000000       0x14 ./src/DuinoBotKids.v1.xx_0022/Print.o
 .text._ZN5Print5printEci
                0x0000000000000000       0x10 ./src/DuinoBotKids.v1.xx_0022/Print.o
 .text._ZN5Print7printlnEv
                0x0000000000000000       0x2e ./src/DuinoBotKids.v1.xx_0022/Print.o
 .text._ZN5Print7printlnEmi
                0x0000000000000000       0x16 ./src/DuinoBotKids.v1.xx_0022/Print.o
 .text._ZN5Print7printlnEji
                0x0000000000000000       0x1e ./src/DuinoBotKids.v1.xx_0022/Print.o
 .text._ZN5Print7printlnEhi
                0x0000000000000000       0x20 ./src/DuinoBotKids.v1.xx_0022/Print.o
 .text._ZN5Print7printlnEPKc
                0x0000000000000000       0x16 ./src/DuinoBotKids.v1.xx_0022/Print.o
 .text._ZN5Print7printlnERK6String
                0x0000000000000000       0x16 ./src/DuinoBotKids.v1.xx_0022/Print.o
 .text._ZN5Print7printlnEli
                0x0000000000000000       0x16 ./src/DuinoBotKids.v1.xx_0022/Print.o
 .text._ZN5Print7printlnEii
                0x0000000000000000       0x26 ./src/DuinoBotKids.v1.xx_0022/Print.o
 .text._ZN5Print7printlnEci
                0x0000000000000000       0x20 ./src/DuinoBotKids.v1.xx_0022/Print.o
 .text._ZN5Print10printFloatEdh
                0x0000000000000000      0x154 ./src/DuinoBotKids.v1.xx_0022/Print.o
 .text._ZN5Print5printEdi
                0x0000000000000000        0x6 ./src/DuinoBotKids.v1.xx_0022/Print.o
 .text._ZN5Print7printlnEdi
                0x0000000000000000       0x16 ./src/DuinoBotKids.v1.xx_0022/Print.o
 .rodata._ZTV5Print
                0x0000000000000000        0xa ./src/DuinoBotKids.v1.xx_0022/Print.o
 .text          0x0000000000000000        0x0 ./src/DuinoBotKids.v1.xx_0022/Tone.o
 .data          0x0000000000000000        0x0 ./src/DuinoBotKids.v1.xx_0022/Tone.o
 .bss           0x0000000000000000        0x0 ./src/DuinoBotKids.v1.xx_0022/Tone.o
 .text._Z6noToneh
                0x0000000000000000       0x2c ./src/DuinoBotKids.v1.xx_0022/Tone.o
 .text.TIMER2_COMPA_vect
                0x0000000000000000       0xb8 ./src/DuinoBotKids.v1.xx_0022/Tone.o
 .bss.timer5_toggle_count
                0x0000000000000000        0x4 ./src/DuinoBotKids.v1.xx_0022/Tone.o
 .bss.timer5_pin_port
                0x0000000000000000        0x2 ./src/DuinoBotKids.v1.xx_0022/Tone.o
 .bss.timer5_pin_mask
                0x0000000000000000        0x1 ./src/DuinoBotKids.v1.xx_0022/Tone.o
 .text          0x0000000000000000        0x0 ./src/DuinoBotKids.v1.xx_0022/VirtualSerial.o
 .data          0x0000000000000000        0x0 ./src/DuinoBotKids.v1.xx_0022/VirtualSerial.o
 .bss           0x0000000000000000        0x0 ./src/DuinoBotKids.v1.xx_0022/VirtualSerial.o
 .text          0x0000000000000000        0x0 ./src/DuinoBotKids.v1.xx_0022/WInterrupts.o
 .data          0x0000000000000000        0x0 ./src/DuinoBotKids.v1.xx_0022/WInterrupts.o
 .bss           0x0000000000000000        0x0 ./src/DuinoBotKids.v1.xx_0022/WInterrupts.o
 .text.attachInterrupt
                0x0000000000000000       0x40 ./src/DuinoBotKids.v1.xx_0022/WInterrupts.o
 .text.detachInterrupt
                0x0000000000000000       0x20 ./src/DuinoBotKids.v1.xx_0022/WInterrupts.o
 .text          0x0000000000000000        0x0 ./src/DuinoBotKids.v1.xx_0022/WMath.o
 .data          0x0000000000000000        0x0 ./src/DuinoBotKids.v1.xx_0022/WMath.o
 .bss           0x0000000000000000        0x0 ./src/DuinoBotKids.v1.xx_0022/WMath.o
 .text._Z10randomSeedj
                0x0000000000000000       0x10 ./src/DuinoBotKids.v1.xx_0022/WMath.o
 .text._Z6randoml
                0x0000000000000000       0x3c ./src/DuinoBotKids.v1.xx_0022/WMath.o
 .text._Z6randomll
                0x0000000000000000       0x3c ./src/DuinoBotKids.v1.xx_0022/WMath.o
 .text._Z3maplllll
                0x0000000000000000       0x92 ./src/DuinoBotKids.v1.xx_0022/WMath.o
 .text._Z8makeWordj
                0x0000000000000000        0x2 ./src/DuinoBotKids.v1.xx_0022/WMath.o
 .text._Z8makeWordhh
                0x0000000000000000        0xe ./src/DuinoBotKids.v1.xx_0022/WMath.o
 .text          0x0000000000000000        0x0 ./src/DuinoBotKids.v1.xx_0022/WString.o
 .data          0x0000000000000000        0x1 ./src/DuinoBotKids.v1.xx_0022/WString.o
 .bss           0x0000000000000000        0x0 ./src/DuinoBotKids.v1.xx_0022/WString.o
 .text._ZN6String9getBufferEj
                0x0000000000000000       0x28 ./src/DuinoBotKids.v1.xx_0022/WString.o
 .text._ZN6StringC2EPKc
                0x0000000000000000       0x5c ./src/DuinoBotKids.v1.xx_0022/WString.o
 .text._ZN6StringC2ERKS_
                0x0000000000000000       0x36 ./src/DuinoBotKids.v1.xx_0022/WString.o
 .text._ZN6StringC2Ec
                0x0000000000000000       0x34 ./src/DuinoBotKids.v1.xx_0022/WString.o
 .text._ZN6StringC2Eh
                0x0000000000000000       0x34 ./src/DuinoBotKids.v1.xx_0022/WString.o
 .text._ZN6StringC2Eii
                0x0000000000000000       0x74 ./src/DuinoBotKids.v1.xx_0022/WString.o
 .text._ZN6StringC2Eji
                0x0000000000000000       0x78 ./src/DuinoBotKids.v1.xx_0022/WString.o
 .text._ZN6StringC2Eli
                0x0000000000000000       0x76 ./src/DuinoBotKids.v1.xx_0022/WString.o
 .text._ZN6StringC2Emi
                0x0000000000000000       0x7a ./src/DuinoBotKids.v1.xx_0022/WString.o
 .text._ZNK6String6charAtEj
                0x0000000000000000       0x10 ./src/DuinoBotKids.v1.xx_0022/WString.o
 .text._ZN6String9setCharAtEjc
                0x0000000000000000       0x1e ./src/DuinoBotKids.v1.xx_0022/WString.o
 .text._ZNK6String9compareToERKS_
                0x0000000000000000       0x12 ./src/DuinoBotKids.v1.xx_0022/WString.o
 .text._ZN6StringaSERKS_
                0x0000000000000000       0x64 ./src/DuinoBotKids.v1.xx_0022/WString.o
 .text._ZN6StringpLERKS_
                0x0000000000000000       0x7c ./src/DuinoBotKids.v1.xx_0022/WString.o
 .text._ZN6String6concatERKS_
                0x0000000000000000        0x6 ./src/DuinoBotKids.v1.xx_0022/WString.o
 .text._ZNK6StringeqERKS_
                0x0000000000000000       0x32 ./src/DuinoBotKids.v1.xx_0022/WString.o
 .text._ZNK6StringneERKS_
                0x0000000000000000       0x36 ./src/DuinoBotKids.v1.xx_0022/WString.o
 .text._ZNK6StringltERKS_
                0x0000000000000000       0x1c ./src/DuinoBotKids.v1.xx_0022/WString.o
 .text._ZNK6StringgtERKS_
                0x0000000000000000       0x22 ./src/DuinoBotKids.v1.xx_0022/WString.o
 .text._ZNK6StringleERKS_
                0x0000000000000000       0x22 ./src/DuinoBotKids.v1.xx_0022/WString.o
 .text._ZNK6StringgeERKS_
                0x0000000000000000       0x1e ./src/DuinoBotKids.v1.xx_0022/WString.o
 .text._ZN6StringixEj
                0x0000000000000000       0x26 ./src/DuinoBotKids.v1.xx_0022/WString.o
 .text._ZNK6StringixEj
                0x0000000000000000       0x10 ./src/DuinoBotKids.v1.xx_0022/WString.o
 .text._ZNK6String8endsWithERKS_
                0x0000000000000000       0x3c ./src/DuinoBotKids.v1.xx_0022/WString.o
 .text._ZNK6String6equalsERKS_
                0x0000000000000000       0x34 ./src/DuinoBotKids.v1.xx_0022/WString.o
 .text._ZN6String7replaceEcc
                0x0000000000000000       0x7e ./src/DuinoBotKids.v1.xx_0022/WString.o
 .text._ZNK6String7indexOfEcj
                0x0000000000000000       0x38 ./src/DuinoBotKids.v1.xx_0022/WString.o
 .text._ZNK6String7indexOfEc
                0x0000000000000000        0xa ./src/DuinoBotKids.v1.xx_0022/WString.o
 .text._ZNK6String7indexOfERKS_j
                0x0000000000000000       0x3c ./src/DuinoBotKids.v1.xx_0022/WString.o
 .text._ZNK6String7indexOfERKS_
                0x0000000000000000        0xa ./src/DuinoBotKids.v1.xx_0022/WString.o
 .text._ZNK6String11lastIndexOfEcj
                0x0000000000000000       0x6a ./src/DuinoBotKids.v1.xx_0022/WString.o
 .text._ZNK6String11lastIndexOfEc
                0x0000000000000000       0x10 ./src/DuinoBotKids.v1.xx_0022/WString.o
 .text._ZNK6String10startsWithERKS_j
                0x0000000000000000       0x3e ./src/DuinoBotKids.v1.xx_0022/WString.o
 .text._ZNK6String10startsWithERKS_
                0x0000000000000000       0x20 ./src/DuinoBotKids.v1.xx_0022/WString.o
 .text._ZNK6String9substringEjj
                0x0000000000000000       0x80 ./src/DuinoBotKids.v1.xx_0022/WString.o
 .text._ZNK6String9substringEj
                0x0000000000000000       0x18 ./src/DuinoBotKids.v1.xx_0022/WString.o
 .text._ZNK6String11lastIndexOfERKS_j
                0x0000000000000000       0xd4 ./src/DuinoBotKids.v1.xx_0022/WString.o
 .text._ZNK6String11lastIndexOfERKS_
                0x0000000000000000       0x16 ./src/DuinoBotKids.v1.xx_0022/WString.o
 .text._ZN6String7replaceERKS_S1_
                0x0000000000000000      0x14a ./src/DuinoBotKids.v1.xx_0022/WString.o
 .text._ZNK6String11toLowerCaseEv
                0x0000000000000000       0x66 ./src/DuinoBotKids.v1.xx_0022/WString.o
 .text._ZNK6String16equalsIgnoreCaseERKS_
                0x0000000000000000       0xa4 ./src/DuinoBotKids.v1.xx_0022/WString.o
 .text._ZNK6String11toUpperCaseEv
                0x0000000000000000       0x66 ./src/DuinoBotKids.v1.xx_0022/WString.o
 .text._ZNK6String4trimEv
                0x0000000000000000       0xd4 ./src/DuinoBotKids.v1.xx_0022/WString.o
 .text._ZN6String8getBytesEPhj
                0x0000000000000000       0x44 ./src/DuinoBotKids.v1.xx_0022/WString.o
 .text._ZN6String11toCharArrayEPcj
                0x0000000000000000       0x44 ./src/DuinoBotKids.v1.xx_0022/WString.o
 .text._ZN6String5toIntEv
                0x0000000000000000        0xc ./src/DuinoBotKids.v1.xx_0022/WString.o
 .bss._ZZN6StringixEjE19dummy_writable_char
                0x0000000000000000        0x1 ./src/DuinoBotKids.v1.xx_0022/WString.o
 .text          0x0000000000000000        0x0 ./src/DuinoBotKids.v1.xx_0022/pins_arduino.o
 .data          0x0000000000000000        0x0 ./src/DuinoBotKids.v1.xx_0022/pins_arduino.o
 .bss           0x0000000000000000        0x0 ./src/DuinoBotKids.v1.xx_0022/pins_arduino.o
 .text          0x0000000000000000        0x0 ./src/DuinoBotKids.v1.xx_0022/wiring.o
 .data          0x0000000000000000        0x0 ./src/DuinoBotKids.v1.xx_0022/wiring.o
 .bss           0x0000000000000000        0x0 ./src/DuinoBotKids.v1.xx_0022/wiring.o
 .text.millis   0x0000000000000000       0x1c ./src/DuinoBotKids.v1.xx_0022/wiring.o
 .text.delayMicroseconds
                0x0000000000000000       0x14 ./src/DuinoBotKids.v1.xx_0022/wiring.o
 .text          0x0000000000000000        0x0 ./src/DuinoBotKids.v1.xx_0022/wiring_analog.o
 .data          0x0000000000000000        0x0 ./src/DuinoBotKids.v1.xx_0022/wiring_analog.o
 .bss           0x0000000000000000        0x0 ./src/DuinoBotKids.v1.xx_0022/wiring_analog.o
 .text.analogReference
                0x0000000000000000        0x6 ./src/DuinoBotKids.v1.xx_0022/wiring_analog.o
 .text          0x0000000000000000        0x0 ./src/DuinoBotKids.v1.xx_0022/wiring_digital.o
 .data          0x0000000000000000        0x0 ./src/DuinoBotKids.v1.xx_0022/wiring_digital.o
 .bss           0x0000000000000000        0x0 ./src/DuinoBotKids.v1.xx_0022/wiring_digital.o
 .text.digitalRead
                0x0000000000000000       0x54 ./src/DuinoBotKids.v1.xx_0022/wiring_digital.o
 .text          0x0000000000000000        0x0 ./src/DuinoBotKids.v1.xx_0022/wiring_pulse.o
 .data          0x0000000000000000        0x0 ./src/DuinoBotKids.v1.xx_0022/wiring_pulse.o
 .bss           0x0000000000000000        0x0 ./src/DuinoBotKids.v1.xx_0022/wiring_pulse.o
 .text.pulseIn  0x0000000000000000      0x128 ./src/DuinoBotKids.v1.xx_0022/wiring_pulse.o
 .text          0x0000000000000000        0x0 ./src/DuinoBotKids.v1.xx_0022/wiring_shift.o
 .data          0x0000000000000000        0x0 ./src/DuinoBotKids.v1.xx_0022/wiring_shift.o
 .bss           0x0000000000000000        0x0 ./src/DuinoBotKids.v1.xx_0022/wiring_shift.o
 .text.shiftIn  0x0000000000000000       0x84 ./src/DuinoBotKids.v1.xx_0022/wiring_shift.o
 .text.shiftOut
                0x0000000000000000       0x86 ./src/DuinoBotKids.v1.xx_0022/wiring_shift.o
 .text          0x0000000000000000        0x0 ./src/main.o
 .data          0x0000000000000000        0x0 ./src/main.o
 .bss           0x0000000000000000        0x0 ./src/main.o
 .text          0x0000000000000000        0x0 /usr/lib/gcc/avr/4.5.3/avr5/libgcc.a(_mulsi3.o)
 .data          0x0000000000000000        0x0 /usr/lib/gcc/avr/4.5.3/avr5/libgcc.a(_mulsi3.o)
 .bss           0x0000000000000000        0x0 /usr/lib/gcc/avr/4.5.3/avr5/libgcc.a(_mulsi3.o)
 .text          0x0000000000000000        0x0 /usr/lib/gcc/avr/4.5.3/avr5/libgcc.a(_divmodhi4.o)
 .data          0x0000000000000000        0x0 /usr/lib/gcc/avr/4.5.3/avr5/libgcc.a(_divmodhi4.o)
 .bss           0x0000000000000000        0x0 /usr/lib/gcc/avr/4.5.3/avr5/libgcc.a(_divmodhi4.o)
 .text          0x0000000000000000        0x0 /usr/lib/gcc/avr/4.5.3/avr5/libgcc.a(_udivmodsi4.o)
 .data          0x0000000000000000        0x0 /usr/lib/gcc/avr/4.5.3/avr5/libgcc.a(_udivmodsi4.o)
 .bss           0x0000000000000000        0x0 /usr/lib/gcc/avr/4.5.3/avr5/libgcc.a(_udivmodsi4.o)
 .text          0x0000000000000000        0x0 /usr/lib/gcc/avr/4.5.3/avr5/libgcc.a(_divmodsi4.o)
 .data          0x0000000000000000        0x0 /usr/lib/gcc/avr/4.5.3/avr5/libgcc.a(_divmodsi4.o)
 .bss           0x0000000000000000        0x0 /usr/lib/gcc/avr/4.5.3/avr5/libgcc.a(_divmodsi4.o)
 .text.libgcc   0x0000000000000000       0x36 /usr/lib/gcc/avr/4.5.3/avr5/libgcc.a(_divmodsi4.o)
 .text          0x0000000000000000        0x0 /usr/lib/gcc/avr/4.5.3/avr5/libgcc.a(_exit.o)
 .data          0x0000000000000000        0x0 /usr/lib/gcc/avr/4.5.3/avr5/libgcc.a(_exit.o)
 .bss           0x0000000000000000        0x0 /usr/lib/gcc/avr/4.5.3/avr5/libgcc.a(_exit.o)
 .text.libgcc   0x0000000000000000        0x0 /usr/lib/gcc/avr/4.5.3/avr5/libgcc.a(_exit.o)
 .text          0x0000000000000000        0x0 /usr/lib/gcc/avr/4.5.3/avr5/libgcc.a(_copy_data.o)
 .data          0x0000000000000000        0x0 /usr/lib/gcc/avr/4.5.3/avr5/libgcc.a(_copy_data.o)
 .bss           0x0000000000000000        0x0 /usr/lib/gcc/avr/4.5.3/avr5/libgcc.a(_copy_data.o)
 .text.libgcc   0x0000000000000000        0x0 /usr/lib/gcc/avr/4.5.3/avr5/libgcc.a(_copy_data.o)
 .text          0x0000000000000000        0x0 /usr/lib/gcc/avr/4.5.3/avr5/libgcc.a(_clear_bss.o)
 .data          0x0000000000000000        0x0 /usr/lib/gcc/avr/4.5.3/avr5/libgcc.a(_clear_bss.o)
 .bss           0x0000000000000000        0x0 /usr/lib/gcc/avr/4.5.3/avr5/libgcc.a(_clear_bss.o)
 .text.libgcc   0x0000000000000000        0x0 /usr/lib/gcc/avr/4.5.3/avr5/libgcc.a(_clear_bss.o)
 .text          0x0000000000000000        0x0 /usr/lib/gcc/avr/4.5.3/avr5/libgcc.a(_ctors.o)
 .data          0x0000000000000000        0x0 /usr/lib/gcc/avr/4.5.3/avr5/libgcc.a(_ctors.o)
 .bss           0x0000000000000000        0x0 /usr/lib/gcc/avr/4.5.3/avr5/libgcc.a(_ctors.o)
 .text.libgcc   0x0000000000000000        0x0 /usr/lib/gcc/avr/4.5.3/avr5/libgcc.a(_ctors.o)
 .text          0x0000000000000000        0x0 /usr/lib/gcc/avr/4.5.3/avr5/libgcc.a(_dtors.o)
 .data          0x0000000000000000        0x0 /usr/lib/gcc/avr/4.5.3/avr5/libgcc.a(_dtors.o)
 .bss           0x0000000000000000        0x0 /usr/lib/gcc/avr/4.5.3/avr5/libgcc.a(_dtors.o)
 .text.libgcc   0x0000000000000000        0x0 /usr/lib/gcc/avr/4.5.3/avr5/libgcc.a(_dtors.o)
 .text          0x0000000000000000       0x58 /usr/lib/gcc/avr/4.5.3/avr5/libgcc.a(_fixunssfsi.o)
 .data          0x0000000000000000        0x0 /usr/lib/gcc/avr/4.5.3/avr5/libgcc.a(_fixunssfsi.o)
 .bss           0x0000000000000000        0x0 /usr/lib/gcc/avr/4.5.3/avr5/libgcc.a(_fixunssfsi.o)
 .text          0x0000000000000000      0x350 /usr/lib/gcc/avr/4.5.3/avr5/libgcc.a(_addsub_sf.o)
 .data          0x0000000000000000        0x0 /usr/lib/gcc/avr/4.5.3/avr5/libgcc.a(_addsub_sf.o)
 .bss           0x0000000000000000        0x0 /usr/lib/gcc/avr/4.5.3/avr5/libgcc.a(_addsub_sf.o)
 .data          0x0000000000000000        0x0 /usr/lib/gcc/avr/4.5.3/avr5/libgcc.a(_mul_sf.o)
 .bss           0x0000000000000000        0x0 /usr/lib/gcc/avr/4.5.3/avr5/libgcc.a(_mul_sf.o)
 .data          0x0000000000000000        0x0 /usr/lib/gcc/avr/4.5.3/avr5/libgcc.a(_div_sf.o)
 .bss           0x0000000000000000        0x0 /usr/lib/gcc/avr/4.5.3/avr5/libgcc.a(_div_sf.o)
 .data          0x0000000000000000        0x0 /usr/lib/gcc/avr/4.5.3/avr5/libgcc.a(_gt_sf.o)
 .bss           0x0000000000000000        0x0 /usr/lib/gcc/avr/4.5.3/avr5/libgcc.a(_gt_sf.o)
 .text          0x0000000000000000       0x60 /usr/lib/gcc/avr/4.5.3/avr5/libgcc.a(_ge_sf.o)
 .data          0x0000000000000000        0x0 /usr/lib/gcc/avr/4.5.3/avr5/libgcc.a(_ge_sf.o)
 .bss           0x0000000000000000        0x0 /usr/lib/gcc/avr/4.5.3/avr5/libgcc.a(_ge_sf.o)
 .data          0x0000000000000000        0x0 /usr/lib/gcc/avr/4.5.3/avr5/libgcc.a(_lt_sf.o)
 .bss           0x0000000000000000        0x0 /usr/lib/gcc/avr/4.5.3/avr5/libgcc.a(_lt_sf.o)
 .data          0x0000000000000000        0x0 /usr/lib/gcc/avr/4.5.3/avr5/libgcc.a(_si_to_sf.o)
 .bss           0x0000000000000000        0x0 /usr/lib/gcc/avr/4.5.3/avr5/libgcc.a(_si_to_sf.o)
 .data          0x0000000000000000        0x0 /usr/lib/gcc/avr/4.5.3/avr5/libgcc.a(_sf_to_si.o)
 .bss           0x0000000000000000        0x0 /usr/lib/gcc/avr/4.5.3/avr5/libgcc.a(_sf_to_si.o)
 .text          0x0000000000000000        0x0 /usr/lib/gcc/avr/4.5.3/avr5/libgcc.a(_thenan_sf.o)
 .bss           0x0000000000000000        0x0 /usr/lib/gcc/avr/4.5.3/avr5/libgcc.a(_thenan_sf.o)
 .text          0x0000000000000000       0xf0 /usr/lib/gcc/avr/4.5.3/avr5/libgcc.a(_usi_to_sf.o)
 .data          0x0000000000000000        0x0 /usr/lib/gcc/avr/4.5.3/avr5/libgcc.a(_usi_to_sf.o)
 .bss           0x0000000000000000        0x0 /usr/lib/gcc/avr/4.5.3/avr5/libgcc.a(_usi_to_sf.o)
 .text          0x0000000000000000        0x0 /usr/lib/gcc/avr/4.5.3/avr5/libgcc.a(_udivmodhi4.o)
 .data          0x0000000000000000        0x0 /usr/lib/gcc/avr/4.5.3/avr5/libgcc.a(_udivmodhi4.o)
 .bss           0x0000000000000000        0x0 /usr/lib/gcc/avr/4.5.3/avr5/libgcc.a(_udivmodhi4.o)
 .text          0x0000000000000000        0x0 /usr/lib/gcc/avr/4.5.3/avr5/libgcc.a(_prologue.o)
 .data          0x0000000000000000        0x0 /usr/lib/gcc/avr/4.5.3/avr5/libgcc.a(_prologue.o)
 .bss           0x0000000000000000        0x0 /usr/lib/gcc/avr/4.5.3/avr5/libgcc.a(_prologue.o)
 .text          0x0000000000000000        0x0 /usr/lib/gcc/avr/4.5.3/avr5/libgcc.a(_epilogue.o)
 .data          0x0000000000000000        0x0 /usr/lib/gcc/avr/4.5.3/avr5/libgcc.a(_epilogue.o)
 .bss           0x0000000000000000        0x0 /usr/lib/gcc/avr/4.5.3/avr5/libgcc.a(_epilogue.o)
 .text          0x0000000000000000        0x0 /usr/lib/gcc/avr/4.5.3/avr5/libgcc.a(_tablejump.o)
 .data          0x0000000000000000        0x0 /usr/lib/gcc/avr/4.5.3/avr5/libgcc.a(_tablejump.o)
 .bss           0x0000000000000000        0x0 /usr/lib/gcc/avr/4.5.3/avr5/libgcc.a(_tablejump.o)
 .data          0x0000000000000000        0x0 /usr/lib/gcc/avr/4.5.3/avr5/libgcc.a(_clzsi2.o)
 .bss           0x0000000000000000        0x0 /usr/lib/gcc/avr/4.5.3/avr5/libgcc.a(_clzsi2.o)
 .data          0x0000000000000000        0x0 /usr/lib/gcc/avr/4.5.3/avr5/libgcc.a(_pack_sf.o)
 .bss           0x0000000000000000        0x0 /usr/lib/gcc/avr/4.5.3/avr5/libgcc.a(_pack_sf.o)
 .data          0x0000000000000000        0x0 /usr/lib/gcc/avr/4.5.3/avr5/libgcc.a(_unpack_sf.o)
 .bss           0x0000000000000000        0x0 /usr/lib/gcc/avr/4.5.3/avr5/libgcc.a(_unpack_sf.o)
 .data          0x0000000000000000        0x0 /usr/lib/gcc/avr/4.5.3/avr5/libgcc.a(_fpcmp_parts_sf.o)
 .bss           0x0000000000000000        0x0 /usr/lib/gcc/avr/4.5.3/avr5/libgcc.a(_fpcmp_parts_sf.o)
 .text          0x0000000000000000        0x0 /usr/lib/gcc/avr/4.5.3/avr5/libgcc.a(_clz.o)
 .bss           0x0000000000000000        0x0 /usr/lib/gcc/avr/4.5.3/avr5/libgcc.a(_clz.o)
 .text          0x0000000000000000        0x0 /usr/lib/gcc/avr/4.5.3/../../../avr/lib/avr5/libc.a(malloc.o)
 .bss           0x0000000000000000        0x0 /usr/lib/gcc/avr/4.5.3/../../../avr/lib/avr5/libc.a(malloc.o)
 .text          0x0000000000000000        0x0 /usr/lib/gcc/avr/4.5.3/../../../avr/lib/avr5/libc.a(random.o)
 .data          0x0000000000000000        0x4 /usr/lib/gcc/avr/4.5.3/../../../avr/lib/avr5/libc.a(random.o)
 .bss           0x0000000000000000        0x0 /usr/lib/gcc/avr/4.5.3/../../../avr/lib/avr5/libc.a(random.o)
 .text.avr-libc
                0x0000000000000000       0xaa /usr/lib/gcc/avr/4.5.3/../../../avr/lib/avr5/libc.a(random.o)
 .text          0x0000000000000000        0x0 /usr/lib/gcc/avr/4.5.3/../../../avr/lib/avr5/libc.a(realloc.o)
 .data          0x0000000000000000        0x0 /usr/lib/gcc/avr/4.5.3/../../../avr/lib/avr5/libc.a(realloc.o)
 .bss           0x0000000000000000        0x0 /usr/lib/gcc/avr/4.5.3/../../../avr/lib/avr5/libc.a(realloc.o)
 .text.avr-libc
                0x0000000000000000      0x196 /usr/lib/gcc/avr/4.5.3/../../../avr/lib/avr5/libc.a(realloc.o)
 .text          0x0000000000000000        0x0 /usr/lib/gcc/avr/4.5.3/../../../avr/lib/avr5/libc.a(strtol.o)
 .data          0x0000000000000000        0x0 /usr/lib/gcc/avr/4.5.3/../../../avr/lib/avr5/libc.a(strtol.o)
 .bss           0x0000000000000000        0x0 /usr/lib/gcc/avr/4.5.3/../../../avr/lib/avr5/libc.a(strtol.o)
 .text          0x0000000000000000        0x0 /usr/lib/gcc/avr/4.5.3/../../../avr/lib/avr5/libc.a(atol.o)
 .data          0x0000000000000000        0x0 /usr/lib/gcc/avr/4.5.3/../../../avr/lib/avr5/libc.a(atol.o)
 .bss           0x0000000000000000        0x0 /usr/lib/gcc/avr/4.5.3/../../../avr/lib/avr5/libc.a(atol.o)
 .text.avr-libc
                0x0000000000000000       0x4e /usr/lib/gcc/avr/4.5.3/../../../avr/lib/avr5/libc.a(atol.o)
 .text          0x0000000000000000        0x0 /usr/lib/gcc/avr/4.5.3/../../../avr/lib/avr5/libc.a(isspace.o)
 .data          0x0000000000000000        0x0 /usr/lib/gcc/avr/4.5.3/../../../avr/lib/avr5/libc.a(isspace.o)
 .bss           0x0000000000000000        0x0 /usr/lib/gcc/avr/4.5.3/../../../avr/lib/avr5/libc.a(isspace.o)
 .text          0x0000000000000000        0x0 /usr/lib/gcc/avr/4.5.3/../../../avr/lib/avr5/libc.a(tolower.o)
 .data          0x0000000000000000        0x0 /usr/lib/gcc/avr/4.5.3/../../../avr/lib/avr5/libc.a(tolower.o)
 .bss           0x0000000000000000        0x0 /usr/lib/gcc/avr/4.5.3/../../../avr/lib/avr5/libc.a(tolower.o)
 .text.avr-libc
                0x0000000000000000       0x10 /usr/lib/gcc/avr/4.5.3/../../../avr/lib/avr5/libc.a(tolower.o)
 .text          0x0000000000000000        0x0 /usr/lib/gcc/avr/4.5.3/../../../avr/lib/avr5/libc.a(toupper.o)
 .data          0x0000000000000000        0x0 /usr/lib/gcc/avr/4.5.3/../../../avr/lib/avr5/libc.a(toupper.o)
 .bss           0x0000000000000000        0x0 /usr/lib/gcc/avr/4.5.3/../../../avr/lib/avr5/libc.a(toupper.o)
 .text.avr-libc
                0x0000000000000000       0x10 /usr/lib/gcc/avr/4.5.3/../../../avr/lib/avr5/libc.a(toupper.o)
 .text          0x0000000000000000        0x0 /usr/lib/gcc/avr/4.5.3/../../../avr/lib/avr5/libc.a(memcpy.o)
 .data          0x0000000000000000        0x0 /usr/lib/gcc/avr/4.5.3/../../../avr/lib/avr5/libc.a(memcpy.o)
 .bss           0x0000000000000000        0x0 /usr/lib/gcc/avr/4.5.3/../../../avr/lib/avr5/libc.a(memcpy.o)
 .text.avr-libc
                0x0000000000000000       0x12 /usr/lib/gcc/avr/4.5.3/../../../avr/lib/avr5/libc.a(memcpy.o)
 .text          0x0000000000000000        0x0 /usr/lib/gcc/avr/4.5.3/../../../avr/lib/avr5/libc.a(strcat.o)
 .data          0x0000000000000000        0x0 /usr/lib/gcc/avr/4.5.3/../../../avr/lib/avr5/libc.a(strcat.o)
 .bss           0x0000000000000000        0x0 /usr/lib/gcc/avr/4.5.3/../../../avr/lib/avr5/libc.a(strcat.o)
 .text.avr-libc
                0x0000000000000000       0x16 /usr/lib/gcc/avr/4.5.3/../../../avr/lib/avr5/libc.a(strcat.o)
 .text          0x0000000000000000        0x0 /usr/lib/gcc/avr/4.5.3/../../../avr/lib/avr5/libc.a(strchr.o)
 .data          0x0000000000000000        0x0 /usr/lib/gcc/avr/4.5.3/../../../avr/lib/avr5/libc.a(strchr.o)
 .bss           0x0000000000000000        0x0 /usr/lib/gcc/avr/4.5.3/../../../avr/lib/avr5/libc.a(strchr.o)
 .text.avr-libc
                0x0000000000000000       0x16 /usr/lib/gcc/avr/4.5.3/../../../avr/lib/avr5/libc.a(strchr.o)
 .text          0x0000000000000000        0x0 /usr/lib/gcc/avr/4.5.3/../../../avr/lib/avr5/libc.a(strcmp.o)
 .data          0x0000000000000000        0x0 /usr/lib/gcc/avr/4.5.3/../../../avr/lib/avr5/libc.a(strcmp.o)
 .bss           0x0000000000000000        0x0 /usr/lib/gcc/avr/4.5.3/../../../avr/lib/avr5/libc.a(strcmp.o)
 .text.avr-libc
                0x0000000000000000       0x12 /usr/lib/gcc/avr/4.5.3/../../../avr/lib/avr5/libc.a(strcmp.o)
 .text          0x0000000000000000        0x0 /usr/lib/gcc/avr/4.5.3/../../../avr/lib/avr5/libc.a(strcpy.o)
 .data          0x0000000000000000        0x0 /usr/lib/gcc/avr/4.5.3/../../../avr/lib/avr5/libc.a(strcpy.o)
 .bss           0x0000000000000000        0x0 /usr/lib/gcc/avr/4.5.3/../../../avr/lib/avr5/libc.a(strcpy.o)
 .text.avr-libc
                0x0000000000000000        0xe /usr/lib/gcc/avr/4.5.3/../../../avr/lib/avr5/libc.a(strcpy.o)
 .text          0x0000000000000000        0x0 /usr/lib/gcc/avr/4.5.3/../../../avr/lib/avr5/libc.a(strncmp.o)
 .data          0x0000000000000000        0x0 /usr/lib/gcc/avr/4.5.3/../../../avr/lib/avr5/libc.a(strncmp.o)
 .bss           0x0000000000000000        0x0 /usr/lib/gcc/avr/4.5.3/../../../avr/lib/avr5/libc.a(strncmp.o)
 .text.avr-libc
                0x0000000000000000       0x1c /usr/lib/gcc/avr/4.5.3/../../../avr/lib/avr5/libc.a(strncmp.o)
 .text          0x0000000000000000        0x0 /usr/lib/gcc/avr/4.5.3/../../../avr/lib/avr5/libc.a(strncpy.o)
 .data          0x0000000000000000        0x0 /usr/lib/gcc/avr/4.5.3/../../../avr/lib/avr5/libc.a(strncpy.o)
 .bss           0x0000000000000000        0x0 /usr/lib/gcc/avr/4.5.3/../../../avr/lib/avr5/libc.a(strncpy.o)
 .text.avr-libc
                0x0000000000000000       0x1e /usr/lib/gcc/avr/4.5.3/../../../avr/lib/avr5/libc.a(strncpy.o)
 .text          0x0000000000000000        0x0 /usr/lib/gcc/avr/4.5.3/../../../avr/lib/avr5/libc.a(strrchr.o)
 .data          0x0000000000000000        0x0 /usr/lib/gcc/avr/4.5.3/../../../avr/lib/avr5/libc.a(strrchr.o)
 .bss           0x0000000000000000        0x0 /usr/lib/gcc/avr/4.5.3/../../../avr/lib/avr5/libc.a(strrchr.o)
 .text.avr-libc
                0x0000000000000000       0x16 /usr/lib/gcc/avr/4.5.3/../../../avr/lib/avr5/libc.a(strrchr.o)
 .text          0x0000000000000000        0x0 /usr/lib/gcc/avr/4.5.3/../../../avr/lib/avr5/libc.a(strstr.o)
 .data          0x0000000000000000        0x0 /usr/lib/gcc/avr/4.5.3/../../../avr/lib/avr5/libc.a(strstr.o)
 .bss           0x0000000000000000        0x0 /usr/lib/gcc/avr/4.5.3/../../../avr/lib/avr5/libc.a(strstr.o)
 .text.avr-libc
                0x0000000000000000       0x34 /usr/lib/gcc/avr/4.5.3/../../../avr/lib/avr5/libc.a(strstr.o)
 .text          0x0000000000000000        0x0 /usr/lib/gcc/avr/4.5.3/../../../avr/lib/avr5/libc.a(itoa.o)
 .data          0x0000000000000000        0x0 /usr/lib/gcc/avr/4.5.3/../../../avr/lib/avr5/libc.a(itoa.o)
 .bss           0x0000000000000000        0x0 /usr/lib/gcc/avr/4.5.3/../../../avr/lib/avr5/libc.a(itoa.o)
 .text.avr-libc
                0x0000000000000000       0x42 /usr/lib/gcc/avr/4.5.3/../../../avr/lib/avr5/libc.a(itoa.o)
 .text          0x0000000000000000        0x0 /usr/lib/gcc/avr/4.5.3/../../../avr/lib/avr5/libc.a(ltoa.o)
 .data          0x0000000000000000        0x0 /usr/lib/gcc/avr/4.5.3/../../../avr/lib/avr5/libc.a(ltoa.o)
 .bss           0x0000000000000000        0x0 /usr/lib/gcc/avr/4.5.3/../../../avr/lib/avr5/libc.a(ltoa.o)
 .text.avr-libc
                0x0000000000000000       0x68 /usr/lib/gcc/avr/4.5.3/../../../avr/lib/avr5/libc.a(ltoa.o)
 .text          0x0000000000000000        0x0 /usr/lib/gcc/avr/4.5.3/../../../avr/lib/avr5/libc.a(mulsi10.o)
 .data          0x0000000000000000        0x0 /usr/lib/gcc/avr/4.5.3/../../../avr/lib/avr5/libc.a(mulsi10.o)
 .bss           0x0000000000000000        0x0 /usr/lib/gcc/avr/4.5.3/../../../avr/lib/avr5/libc.a(mulsi10.o)
 .text.avr-libc
                0x0000000000000000       0x2a /usr/lib/gcc/avr/4.5.3/../../../avr/lib/avr5/libc.a(mulsi10.o)
 .text          0x0000000000000000        0x0 /usr/lib/gcc/avr/4.5.3/../../../avr/lib/avr5/libc.a(ultoa.o)
 .data          0x0000000000000000        0x0 /usr/lib/gcc/avr/4.5.3/../../../avr/lib/avr5/libc.a(ultoa.o)
 .bss           0x0000000000000000        0x0 /usr/lib/gcc/avr/4.5.3/../../../avr/lib/avr5/libc.a(ultoa.o)
 .text.avr-libc
                0x0000000000000000       0x4a /usr/lib/gcc/avr/4.5.3/../../../avr/lib/avr5/libc.a(ultoa.o)
 .text          0x0000000000000000        0x0 /usr/lib/gcc/avr/4.5.3/../../../avr/lib/avr5/libc.a(printf.o)
 .data          0x0000000000000000        0x0 /usr/lib/gcc/avr/4.5.3/../../../avr/lib/avr5/libc.a(printf.o)
 .bss           0x0000000000000000        0x0 /usr/lib/gcc/avr/4.5.3/../../../avr/lib/avr5/libc.a(printf.o)
 .text          0x0000000000000000        0x0 /usr/lib/gcc/avr/4.5.3/../../../avr/lib/avr5/libc.a(sprintf.o)
 .data          0x0000000000000000        0x0 /usr/lib/gcc/avr/4.5.3/../../../avr/lib/avr5/libc.a(sprintf.o)
 .bss           0x0000000000000000        0x0 /usr/lib/gcc/avr/4.5.3/../../../avr/lib/avr5/libc.a(sprintf.o)
 .text          0x0000000000000000        0x0 /usr/lib/gcc/avr/4.5.3/../../../avr/lib/avr5/libc.a(vfprintf_std.o)
 .data          0x0000000000000000        0x0 /usr/lib/gcc/avr/4.5.3/../../../avr/lib/avr5/libc.a(vfprintf_std.o)
 .bss           0x0000000000000000        0x0 /usr/lib/gcc/avr/4.5.3/../../../avr/lib/avr5/libc.a(vfprintf_std.o)
 .text          0x0000000000000000        0x0 /usr/lib/gcc/avr/4.5.3/../../../avr/lib/avr5/libc.a(eerd_byte_atmega32u4.o)
 .data          0x0000000000000000        0x0 /usr/lib/gcc/avr/4.5.3/../../../avr/lib/avr5/libc.a(eerd_byte_atmega32u4.o)
 .bss           0x0000000000000000        0x0 /usr/lib/gcc/avr/4.5.3/../../../avr/lib/avr5/libc.a(eerd_byte_atmega32u4.o)
 .text.avr-libc
                0x0000000000000000       0x10 /usr/lib/gcc/avr/4.5.3/../../../avr/lib/avr5/libc.a(eerd_byte_atmega32u4.o)
 .text          0x0000000000000000        0x0 /usr/lib/gcc/avr/4.5.3/../../../avr/lib/avr5/libc.a(eeupd_byte_atmega32u4.o)
 .data          0x0000000000000000        0x0 /usr/lib/gcc/avr/4.5.3/../../../avr/lib/avr5/libc.a(eeupd_byte_atmega32u4.o)
 .bss           0x0000000000000000        0x0 /usr/lib/gcc/avr/4.5.3/../../../avr/lib/avr5/libc.a(eeupd_byte_atmega32u4.o)
 .text.avr-libc
                0x0000000000000000       0x24 /usr/lib/gcc/avr/4.5.3/../../../avr/lib/avr5/libc.a(eeupd_byte_atmega32u4.o)
 .text          0x0000000000000000        0x0 /usr/lib/gcc/avr/4.5.3/../../../avr/lib/avr5/libc.a(errno.o)
 .data          0x0000000000000000        0x0 /usr/lib/gcc/avr/4.5.3/../../../avr/lib/avr5/libc.a(errno.o)
 .bss           0x0000000000000000        0x0 /usr/lib/gcc/avr/4.5.3/../../../avr/lib/avr5/libc.a(errno.o)
 .text          0x0000000000000000        0x0 /usr/lib/gcc/avr/4.5.3/../../../avr/lib/avr5/libc.a(cty_isfalse.o)
 .data          0x0000000000000000        0x0 /usr/lib/gcc/avr/4.5.3/../../../avr/lib/avr5/libc.a(cty_isfalse.o)
 .bss           0x0000000000000000        0x0 /usr/lib/gcc/avr/4.5.3/../../../avr/lib/avr5/libc.a(cty_isfalse.o)
 .text          0x0000000000000000        0x0 /usr/lib/gcc/avr/4.5.3/../../../avr/lib/avr5/libc.a(strnlen_P.o)
 .data          0x0000000000000000        0x0 /usr/lib/gcc/avr/4.5.3/../../../avr/lib/avr5/libc.a(strnlen_P.o)
 .bss           0x0000000000000000        0x0 /usr/lib/gcc/avr/4.5.3/../../../avr/lib/avr5/libc.a(strnlen_P.o)
 .text          0x0000000000000000        0x0 /usr/lib/gcc/avr/4.5.3/../../../avr/lib/avr5/libc.a(strnlen.o)
 .data          0x0000000000000000        0x0 /usr/lib/gcc/avr/4.5.3/../../../avr/lib/avr5/libc.a(strnlen.o)
 .bss           0x0000000000000000        0x0 /usr/lib/gcc/avr/4.5.3/../../../avr/lib/avr5/libc.a(strnlen.o)
 .text          0x0000000000000000        0x0 /usr/lib/gcc/avr/4.5.3/../../../avr/lib/avr5/libc.a(strrev.o)
 .data          0x0000000000000000        0x0 /usr/lib/gcc/avr/4.5.3/../../../avr/lib/avr5/libc.a(strrev.o)
 .bss           0x0000000000000000        0x0 /usr/lib/gcc/avr/4.5.3/../../../avr/lib/avr5/libc.a(strrev.o)
 .text.avr-libc
                0x0000000000000000       0x20 /usr/lib/gcc/avr/4.5.3/../../../avr/lib/avr5/libc.a(strrev.o)
 .text          0x0000000000000000        0x0 /usr/lib/gcc/avr/4.5.3/../../../avr/lib/avr5/libc.a(fputc.o)
 .data          0x0000000000000000        0x0 /usr/lib/gcc/avr/4.5.3/../../../avr/lib/avr5/libc.a(fputc.o)
 .bss           0x0000000000000000        0x0 /usr/lib/gcc/avr/4.5.3/../../../avr/lib/avr5/libc.a(fputc.o)
 .text          0x0000000000000000        0x0 /usr/lib/gcc/avr/4.5.3/../../../avr/lib/avr5/libc.a(iob.o)
 .data          0x0000000000000000        0x0 /usr/lib/gcc/avr/4.5.3/../../../avr/lib/avr5/libc.a(iob.o)
 .bss           0x0000000000000000        0x0 /usr/lib/gcc/avr/4.5.3/../../../avr/lib/avr5/libc.a(iob.o)
 .text          0x0000000000000000        0x0 /usr/lib/gcc/avr/4.5.3/../../../avr/lib/avr5/libc.a(ultoa_invert.o)
 .data          0x0000000000000000        0x0 /usr/lib/gcc/avr/4.5.3/../../../avr/lib/avr5/libc.a(ultoa_invert.o)
 .bss           0x0000000000000000        0x0 /usr/lib/gcc/avr/4.5.3/../../../avr/lib/avr5/libc.a(ultoa_invert.o)

Memory Configuration

Name             Origin             Length             Attributes
text             0x0000000000000000 0x0000000000020000 xr
data             0x0000000000800060 0x000000000000ffa0 rw !x
eeprom           0x0000000000810000 0x0000000000010000 rw !x
fuse             0x0000000000820000 0x0000000000000400 rw !x
lock             0x0000000000830000 0x0000000000000400 rw !x
signature        0x0000000000840000 0x0000000000000400 rw !x
*default*        0x0000000000000000 0xffffffffffffffff

Linker script and memory map

Address of section .data set to 0x800100
LOAD /usr/lib/gcc/avr/4.5.3/../../../avr/lib/avr5/crtm32u4.o
LOAD ./src/robotProtocol/messages/CommandAcceptedMessage.o
LOAD ./src/robotProtocol/messages/CommandErrorMessage.o
LOAD ./src/robotProtocol/messages/CommunicationStartAcknowledgeMessage.o
LOAD ./src/robotProtocol/messages/CommunicationStartMessage.o
LOAD ./src/robotProtocol/messages/CommunicationStopMessage.o
LOAD ./src/robotProtocol/messages/DestinationReachedMessage.o
LOAD ./src/robotProtocol/messages/FollowLineMessage.o
LOAD ./src/robotProtocol/messages/KeepAliveMessage.o
LOAD ./src/robotProtocol/messages/ReadIRSensorsMessage.o
LOAD ./src/robotProtocol/messages/ReadIRSensorsReplyMessage.o
LOAD ./src/robotProtocol/messages/ReadUSSensorMessage.o
LOAD ./src/robotProtocol/messages/ReadUSSensorReplyMessage.o
LOAD ./src/robotProtocol/messages/ReusableMessageProxy.o
LOAD ./src/robotProtocol/messages/RobotLostMessage.o
LOAD ./src/robotProtocol/messages/RobotStatusMessage.o
LOAD ./src/robotProtocol/messages/SetMotorSpeedMessage.o
LOAD ./src/robotProtocol/messages/TurnAroundMessage.o
LOAD ./src/robotProtocol/messages/TurnLeftMessage.o
LOAD ./src/robotProtocol/messages/TurnRightMessage.o
LOAD ./src/robotProtocol/commands/FollowLineCommand.o
LOAD ./src/robotProtocol/commands/ReadIRSensorsCommand.o
LOAD ./src/robotProtocol/commands/ReadUSSensorCommand.o
LOAD ./src/robotProtocol/commands/SendKeepAliveCommand.o
LOAD ./src/robotProtocol/commands/SetMotorSpeedCommand.o
LOAD ./src/robotProtocol/commands/TurnCommand.o
LOAD ./src/robotProtocol/Command.o
LOAD ./src/robotProtocol/Message.o
LOAD ./src/robotProtocol/MessageManager.o
LOAD ./src/robotProtocol/MessageReceiver.o
LOAD ./src/robotProtocol/MessageSender.o
LOAD ./src/robotProtocol/N6.o
LOAD ./src/robotProtocol/SerialSenderReceiver.o
LOAD ./src/DuinoBotKids.v1.xx_0022/LUFA/Drivers/USB/LowLevel/Device.o
LOAD ./src/DuinoBotKids.v1.xx_0022/LUFA/Drivers/USB/LowLevel/Endpoint.o
LOAD ./src/DuinoBotKids.v1.xx_0022/LUFA/Drivers/USB/LowLevel/Host.o
LOAD ./src/DuinoBotKids.v1.xx_0022/LUFA/Drivers/USB/LowLevel/Pipe.o
LOAD ./src/DuinoBotKids.v1.xx_0022/LUFA/Drivers/USB/LowLevel/USBController.o
LOAD ./src/DuinoBotKids.v1.xx_0022/LUFA/Drivers/USB/LowLevel/USBInterrupt.o
LOAD ./src/DuinoBotKids.v1.xx_0022/LUFA/Drivers/USB/HighLevel/ConfigDescriptor.o
LOAD ./src/DuinoBotKids.v1.xx_0022/LUFA/Drivers/USB/HighLevel/DeviceStandardReq.o
LOAD ./src/DuinoBotKids.v1.xx_0022/LUFA/Drivers/USB/HighLevel/EndpointStream.o
LOAD ./src/DuinoBotKids.v1.xx_0022/LUFA/Drivers/USB/HighLevel/Events.o
LOAD ./src/DuinoBotKids.v1.xx_0022/LUFA/Drivers/USB/HighLevel/HostStandardReq.o
LOAD ./src/DuinoBotKids.v1.xx_0022/LUFA/Drivers/USB/HighLevel/PipeStream.o
LOAD ./src/DuinoBotKids.v1.xx_0022/LUFA/Drivers/USB/HighLevel/USBTask.o
LOAD ./src/DuinoBotKids.v1.xx_0022/LUFA/Drivers/USB/Class/Device/CDC.o
LOAD ./src/DuinoBotKids.v1.xx_0022/DCMotor/DCMotor.o
LOAD ./src/DuinoBotKids.v1.xx_0022/CDCSerial.o
LOAD ./src/DuinoBotKids.v1.xx_0022/CPPLib.o
LOAD ./src/DuinoBotKids.v1.xx_0022/Descriptors.o
LOAD ./src/DuinoBotKids.v1.xx_0022/HardwareSerial.o
LOAD ./src/DuinoBotKids.v1.xx_0022/Print.o
LOAD ./src/DuinoBotKids.v1.xx_0022/Tone.o
LOAD ./src/DuinoBotKids.v1.xx_0022/VirtualSerial.o
LOAD ./src/DuinoBotKids.v1.xx_0022/WInterrupts.o
LOAD ./src/DuinoBotKids.v1.xx_0022/WMath.o
LOAD ./src/DuinoBotKids.v1.xx_0022/WString.o
LOAD ./src/DuinoBotKids.v1.xx_0022/pins_arduino.o
LOAD ./src/DuinoBotKids.v1.xx_0022/wiring.o
LOAD ./src/DuinoBotKids.v1.xx_0022/wiring_analog.o
LOAD ./src/DuinoBotKids.v1.xx_0022/wiring_digital.o
LOAD ./src/DuinoBotKids.v1.xx_0022/wiring_pulse.o
LOAD ./src/DuinoBotKids.v1.xx_0022/wiring_shift.o
LOAD ./src/main.o
LOAD /usr/lib/gcc/avr/4.5.3/avr5/libgcc.a
LOAD /usr/lib/gcc/avr/4.5.3/../../../avr/lib/avr5/libm.a
LOAD /usr/lib/gcc/avr/4.5.3/../../../avr/lib/avr5/libc.a
LOAD /usr/lib/gcc/avr/4.5.3/avr5/libgcc.a
LOAD /usr/lib/gcc/avr/4.5.3/../../../avr/lib/avr5/libc.a
LOAD /usr/lib/gcc/avr/4.5.3/avr5/libgcc.a

.hash
 *(.hash)

.dynsym
 *(.dynsym)

.dynstr
 *(.dynstr)

.gnu.version
 *(.gnu.version)

.gnu.version_d
 *(.gnu.version_d)

.gnu.version_r
 *(.gnu.version_r)

.rel.init
 *(.rel.init)

.rela.init
 *(.rela.init)

.rel.text
 *(.rel.text)
 *(.rel.text.*)
 *(.rel.gnu.linkonce.t*)

.rela.text
 *(.rela.text)
 *(.rela.text.*)
 *(.rela.gnu.linkonce.t*)

.rel.fini
 *(.rel.fini)

.rela.fini
 *(.rela.fini)

.rel.rodata
 *(.rel.rodata)
 *(.rel.rodata.*)
 *(.rel.gnu.linkonce.r*)

.rela.rodata
 *(.rela.rodata)
 *(.rela.rodata.*)
 *(.rela.gnu.linkonce.r*)

.rel.data
 *(.rel.data)
 *(.rel.data.*)
 *(.rel.gnu.linkonce.d*)

.rela.data
 *(.rela.data)
 *(.rela.data.*)
 *(.rela.gnu.linkonce.d*)

.rel.ctors
 *(.rel.ctors)

.rela.ctors
 *(.rela.ctors)

.rel.dtors
 *(.rel.dtors)

.rela.dtors
 *(.rela.dtors)

.rel.got
 *(.rel.got)

.rela.got
 *(.rela.got)

.rel.bss
 *(.rel.bss)

.rela.bss
 *(.rela.bss)

.rel.plt
 *(.rel.plt)

.rela.plt
 *(.rela.plt)

.text           0x0000000000000000     0x6476
 *(.vectors)
 .vectors       0x0000000000000000       0xac /usr/lib/gcc/avr/4.5.3/../../../avr/lib/avr5/crtm32u4.o
                0x0000000000000000                __vectors
                0x0000000000000000                __vector_default
 *(.vectors)
 *(.progmem.gcc*)
 *(.progmem*)
 .progmem.data  0x00000000000000ac       0x7c ./src/DuinoBotKids.v1.xx_0022/Descriptors.o
                0x00000000000000ac                DeviceDescriptor
                0x00000000000000be                ConfigurationDescriptor
                0x00000000000000fc                LanguageString
                0x0000000000000100                ProductString
 .progmem.tone  0x0000000000000128        0x1 ./src/DuinoBotKids.v1.xx_0022/Tone.o
 .progmem.data  0x0000000000000129       0x91 ./src/DuinoBotKids.v1.xx_0022/pins_arduino.o
                0x0000000000000129                port_to_mode_PGM
                0x0000000000000137                port_to_output_PGM
                0x0000000000000145                port_to_input_PGM
                0x0000000000000153                digital_pin_to_port_PGM
                0x000000000000016d                digital_pin_to_bit_mask_PGM
                0x0000000000000187                digital_pin_to_timer_PGM
                0x00000000000001a1                analog_pin_to_adc_channel_PGM
                0x00000000000001a9                analog_channel_to_adc_mux_PGM
                0x00000000000001ba                . = ALIGN (0x2)
                0x00000000000001ba                __trampolines_start = .
 *(.trampolines)
 .trampolines   0x00000000000001ba        0x0 linker stubs
 *(.trampolines*)
                0x00000000000001ba                __trampolines_end = .
 *(.jumptables)
 *(.jumptables*)
 *(.lowtext)
 *(.lowtext*)
                0x00000000000001ba                __ctors_start = .
 *(.ctors)
 .ctors         0x00000000000001ba        0x2 ./src/robotProtocol/messages/CommandAcceptedMessage.o
 .ctors         0x00000000000001bc        0x2 ./src/robotProtocol/messages/CommandErrorMessage.o
 .ctors         0x00000000000001be        0x2 ./src/robotProtocol/messages/CommunicationStartAcknowledgeMessage.o
 .ctors         0x00000000000001c0        0x2 ./src/robotProtocol/messages/CommunicationStartMessage.o
 .ctors         0x00000000000001c2        0x2 ./src/robotProtocol/messages/CommunicationStopMessage.o
 .ctors         0x00000000000001c4        0x2 ./src/robotProtocol/messages/DestinationReachedMessage.o
 .ctors         0x00000000000001c6        0x2 ./src/robotProtocol/messages/FollowLineMessage.o
 .ctors         0x00000000000001c8        0x2 ./src/robotProtocol/messages/KeepAliveMessage.o
 .ctors         0x00000000000001ca        0x2 ./src/robotProtocol/messages/ReadIRSensorsMessage.o
 .ctors         0x00000000000001cc        0x2 ./src/robotProtocol/messages/ReadIRSensorsReplyMessage.o
 .ctors         0x00000000000001ce        0x2 ./src/robotProtocol/messages/ReadUSSensorMessage.o
 .ctors         0x00000000000001d0        0x2 ./src/robotProtocol/messages/ReadUSSensorReplyMessage.o
 .ctors         0x00000000000001d2        0x2 ./src/robotProtocol/messages/ReusableMessageProxy.o
 .ctors         0x00000000000001d4        0x2 ./src/robotProtocol/messages/RobotLostMessage.o
 .ctors         0x00000000000001d6        0x2 ./src/robotProtocol/messages/RobotStatusMessage.o
 .ctors         0x00000000000001d8        0x2 ./src/robotProtocol/messages/SetMotorSpeedMessage.o
 .ctors         0x00000000000001da        0x2 ./src/robotProtocol/messages/TurnAroundMessage.o
 .ctors         0x00000000000001dc        0x2 ./src/robotProtocol/messages/TurnLeftMessage.o
 .ctors         0x00000000000001de        0x2 ./src/robotProtocol/messages/TurnRightMessage.o
 .ctors         0x00000000000001e0        0x2 ./src/robotProtocol/commands/FollowLineCommand.o
 .ctors         0x00000000000001e2        0x2 ./src/robotProtocol/commands/ReadIRSensorsCommand.o
 .ctors         0x00000000000001e4        0x2 ./src/robotProtocol/commands/ReadUSSensorCommand.o
 .ctors         0x00000000000001e6        0x2 ./src/robotProtocol/commands/SendKeepAliveCommand.o
 .ctors         0x00000000000001e8        0x2 ./src/robotProtocol/commands/SetMotorSpeedCommand.o
 .ctors         0x00000000000001ea        0x2 ./src/robotProtocol/commands/TurnCommand.o
 .ctors         0x00000000000001ec        0x2 ./src/robotProtocol/Command.o
 .ctors         0x00000000000001ee        0x2 ./src/robotProtocol/N6.o
 .ctors         0x00000000000001f0        0x2 ./src/robotProtocol/SerialSenderReceiver.o
 .ctors         0x00000000000001f2        0x2 ./src/DuinoBotKids.v1.xx_0022/DCMotor/DCMotor.o
 .ctors         0x00000000000001f4        0x2 ./src/DuinoBotKids.v1.xx_0022/CDCSerial.o
 .ctors         0x00000000000001f6        0x2 ./src/DuinoBotKids.v1.xx_0022/HardwareSerial.o
 .ctors         0x00000000000001f8        0x2 ./src/DuinoBotKids.v1.xx_0022/WString.o
 .ctors         0x00000000000001fa        0x2 ./src/main.o
                0x00000000000001fc                __ctors_end = .
                0x00000000000001fc                __dtors_start = .
 *(.dtors)
 .dtors         0x00000000000001fc        0x2 ./src/robotProtocol/messages/CommandAcceptedMessage.o
 .dtors         0x00000000000001fe        0x2 ./src/robotProtocol/messages/CommandErrorMessage.o
 .dtors         0x0000000000000200        0x2 ./src/robotProtocol/messages/CommunicationStartAcknowledgeMessage.o
 .dtors         0x0000000000000202        0x2 ./src/robotProtocol/messages/CommunicationStartMessage.o
 .dtors         0x0000000000000204        0x2 ./src/robotProtocol/messages/CommunicationStopMessage.o
 .dtors         0x0000000000000206        0x2 ./src/robotProtocol/messages/DestinationReachedMessage.o
 .dtors         0x0000000000000208        0x2 ./src/robotProtocol/messages/FollowLineMessage.o
 .dtors         0x000000000000020a        0x2 ./src/robotProtocol/messages/KeepAliveMessage.o
 .dtors         0x000000000000020c        0x2 ./src/robotProtocol/messages/ReadIRSensorsMessage.o
 .dtors         0x000000000000020e        0x2 ./src/robotProtocol/messages/ReadIRSensorsReplyMessage.o
 .dtors         0x0000000000000210        0x2 ./src/robotProtocol/messages/ReadUSSensorMessage.o
 .dtors         0x0000000000000212        0x2 ./src/robotProtocol/messages/ReadUSSensorReplyMessage.o
 .dtors         0x0000000000000214        0x2 ./src/robotProtocol/messages/ReusableMessageProxy.o
 .dtors         0x0000000000000216        0x2 ./src/robotProtocol/messages/RobotLostMessage.o
 .dtors         0x0000000000000218        0x2 ./src/robotProtocol/messages/RobotStatusMessage.o
 .dtors         0x000000000000021a        0x2 ./src/robotProtocol/messages/SetMotorSpeedMessage.o
 .dtors         0x000000000000021c        0x2 ./src/robotProtocol/messages/TurnAroundMessage.o
 .dtors         0x000000000000021e        0x2 ./src/robotProtocol/messages/TurnLeftMessage.o
 .dtors         0x0000000000000220        0x2 ./src/robotProtocol/messages/TurnRightMessage.o
                0x0000000000000222                __dtors_end = .
 SORT(*)(.ctors)
 SORT(*)(.dtors)
 *(.init0)
 .init0         0x0000000000000222        0x0 /usr/lib/gcc/avr/4.5.3/../../../avr/lib/avr5/crtm32u4.o
                0x0000000000000222                __init
 *(.init0)
 *(.init1)
 *(.init1)
 *(.init2)
 .init2         0x0000000000000222        0xc /usr/lib/gcc/avr/4.5.3/../../../avr/lib/avr5/crtm32u4.o
 *(.init2)
 *(.init3)
 *(.init3)
 *(.init4)
 .init4         0x000000000000022e       0x16 /usr/lib/gcc/avr/4.5.3/avr5/libgcc.a(_copy_data.o)
                0x000000000000022e                __do_copy_data
 .init4         0x0000000000000244       0x10 /usr/lib/gcc/avr/4.5.3/avr5/libgcc.a(_clear_bss.o)
                0x0000000000000244                __do_clear_bss
 *(.init4)
 *(.init5)
 *(.init5)
 *(.init6)
 .init6         0x0000000000000254       0x16 /usr/lib/gcc/avr/4.5.3/avr5/libgcc.a(_ctors.o)
                0x0000000000000254                __do_global_ctors
 *(.init6)
 *(.init7)
 *(.init7)
 *(.init8)
 *(.init8)
 *(.init9)
 .init9         0x000000000000026a        0x8 /usr/lib/gcc/avr/4.5.3/../../../avr/lib/avr5/crtm32u4.o
 *(.init9)
 *(.text)
 .text          0x0000000000000272        0x4 /usr/lib/gcc/avr/4.5.3/../../../avr/lib/avr5/crtm32u4.o
                0x0000000000000272                __vector_38
                0x0000000000000272                __vector_22
                0x0000000000000272                __vector_28
                0x0000000000000272                __vector_32
                0x0000000000000272                __vector_34
                0x0000000000000272                __vector_24
                0x0000000000000272                __bad_interrupt
                0x0000000000000272                __vector_6
                0x0000000000000272                __vector_31
                0x0000000000000272                __vector_35
                0x0000000000000272                __vector_39
                0x0000000000000272                __vector_30
                0x0000000000000272                __vector_11
                0x0000000000000272                __vector_13
                0x0000000000000272                __vector_19
                0x0000000000000272                __vector_7
                0x0000000000000272                __vector_41
                0x0000000000000272                __vector_27
                0x0000000000000272                __vector_5
                0x0000000000000272                __vector_33
                0x0000000000000272                __vector_37
                0x0000000000000272                __vector_9
                0x0000000000000272                __vector_15
                0x0000000000000272                __vector_36
                0x0000000000000272                __vector_29
                0x0000000000000272                __vector_40
                0x0000000000000272                __vector_8
                0x0000000000000272                __vector_26
                0x0000000000000272                __vector_14
                0x0000000000000272                __vector_16
                0x0000000000000272                __vector_18
                0x0000000000000272                __vector_20
                0x0000000000000272                __vector_42
 .text          0x0000000000000276      0x1f4 /usr/lib/gcc/avr/4.5.3/avr5/libgcc.a(_mul_sf.o)
                0x0000000000000276                __mulsf3
 .text          0x000000000000046a      0x15c /usr/lib/gcc/avr/4.5.3/avr5/libgcc.a(_div_sf.o)
                0x000000000000046a                __divsf3
 .text          0x00000000000005c6       0x60 /usr/lib/gcc/avr/4.5.3/avr5/libgcc.a(_gt_sf.o)
                0x00000000000005c6                __gtsf2
 .text          0x0000000000000626       0x60 /usr/lib/gcc/avr/4.5.3/avr5/libgcc.a(_lt_sf.o)
                0x0000000000000626                __ltsf2
 .text          0x0000000000000686       0xc0 /usr/lib/gcc/avr/4.5.3/avr5/libgcc.a(_si_to_sf.o)
                0x0000000000000686                __floatsisf
 .text          0x0000000000000746       0xa4 /usr/lib/gcc/avr/4.5.3/avr5/libgcc.a(_sf_to_si.o)
                0x0000000000000746                __fixsfsi
 .text          0x00000000000007ea       0xb4 /usr/lib/gcc/avr/4.5.3/avr5/libgcc.a(_clzsi2.o)
                0x00000000000007ea                __clzsi2
 .text          0x000000000000089e      0x19c /usr/lib/gcc/avr/4.5.3/avr5/libgcc.a(_pack_sf.o)
                0x000000000000089e                __pack_f
 .text          0x0000000000000a3a       0xd2 /usr/lib/gcc/avr/4.5.3/avr5/libgcc.a(_unpack_sf.o)
                0x0000000000000a3a                __unpack_f
 .text          0x0000000000000b0c       0xb2 /usr/lib/gcc/avr/4.5.3/avr5/libgcc.a(_fpcmp_parts_sf.o)
                0x0000000000000b0c                __fpcmp_parts_f
                0x0000000000000bbe                . = ALIGN (0x2)
 *(.text.*)
 .text._ZN13RobotProtocol22CommandAcceptedMessage9writeDataEPPc
                0x0000000000000bbe       0x5c ./src/robotProtocol/messages/CommandAcceptedMessage.o
                0x0000000000000bbe                _ZN13RobotProtocol22CommandAcceptedMessage9writeDataEPPc
 .text._ZN13RobotProtocol22CommandAcceptedMessage8readDataEPPc
                0x0000000000000c1a       0x70 ./src/robotProtocol/messages/CommandAcceptedMessage.o
                0x0000000000000c1a                _ZN13RobotProtocol22CommandAcceptedMessage8readDataEPPc
 .text._ZN13RobotProtocol22CommandAcceptedMessage16getMessageLengthEv
                0x0000000000000c8a        0xe ./src/robotProtocol/messages/CommandAcceptedMessage.o
                0x0000000000000c8a                _ZN13RobotProtocol22CommandAcceptedMessage16getMessageLengthEv
 .text._ZN13RobotProtocol22CommandAcceptedMessageD2Ev
                0x0000000000000c98       0x10 ./src/robotProtocol/messages/CommandAcceptedMessage.o
                0x0000000000000c98                _ZN13RobotProtocol22CommandAcceptedMessageD1Ev
                0x0000000000000c98                _ZN13RobotProtocol22CommandAcceptedMessageD2Ev
 .text._ZN13RobotProtocol22CommandAcceptedMessageD0Ev
                0x0000000000000ca8       0x20 ./src/robotProtocol/messages/CommandAcceptedMessage.o
                0x0000000000000ca8                _ZN13RobotProtocol22CommandAcceptedMessageD0Ev
 .text._ZN13RobotProtocol22CommandAcceptedMessage11deserializeEPc
                0x0000000000000cc8       0x18 ./src/robotProtocol/messages/CommandAcceptedMessage.o
                0x0000000000000cc8                _ZN13RobotProtocol22CommandAcceptedMessage11deserializeEPc
 .text._ZN13RobotProtocol22CommandAcceptedMessageC2Eiii
                0x0000000000000ce0       0x48 ./src/robotProtocol/messages/CommandAcceptedMessage.o
                0x0000000000000ce0                _ZN13RobotProtocol22CommandAcceptedMessageC1Eiii
                0x0000000000000ce0                _ZN13RobotProtocol22CommandAcceptedMessageC2Eiii
 .text._Z41__static_initialization_and_destruction_0ii.clone.0
                0x0000000000000d28       0x36 ./src/robotProtocol/messages/CommandAcceptedMessage.o
 .text._GLOBAL__I__ZN13RobotProtocol22CommandAcceptedMessage13staticMessageE
                0x0000000000000d5e        0xa ./src/robotProtocol/messages/CommandAcceptedMessage.o
 .text._GLOBAL__D__ZN13RobotProtocol22CommandAcceptedMessage13staticMessageE
                0x0000000000000d68        0xa ./src/robotProtocol/messages/CommandAcceptedMessage.o
 .text._ZN13RobotProtocol19CommandErrorMessage9writeDataEPPc
                0x0000000000000d72       0x74 ./src/robotProtocol/messages/CommandErrorMessage.o
                0x0000000000000d72                _ZN13RobotProtocol19CommandErrorMessage9writeDataEPPc
 .text._ZN13RobotProtocol19CommandErrorMessage8readDataEPPc
                0x0000000000000de6       0xa0 ./src/robotProtocol/messages/CommandErrorMessage.o
                0x0000000000000de6                _ZN13RobotProtocol19CommandErrorMessage8readDataEPPc
 .text._ZN13RobotProtocol19CommandErrorMessage16getMessageLengthEv
                0x0000000000000e86        0xe ./src/robotProtocol/messages/CommandErrorMessage.o
                0x0000000000000e86                _ZN13RobotProtocol19CommandErrorMessage16getMessageLengthEv
 .text._ZN13RobotProtocol19CommandErrorMessageD2Ev
                0x0000000000000e94       0x10 ./src/robotProtocol/messages/CommandErrorMessage.o
                0x0000000000000e94                _ZN13RobotProtocol19CommandErrorMessageD1Ev
                0x0000000000000e94                _ZN13RobotProtocol19CommandErrorMessageD2Ev
 .text._ZN13RobotProtocol19CommandErrorMessageD0Ev
                0x0000000000000ea4       0x20 ./src/robotProtocol/messages/CommandErrorMessage.o
                0x0000000000000ea4                _ZN13RobotProtocol19CommandErrorMessageD0Ev
 .text._ZN13RobotProtocol19CommandErrorMessage11deserializeEPc
                0x0000000000000ec4       0x18 ./src/robotProtocol/messages/CommandErrorMessage.o
                0x0000000000000ec4                _ZN13RobotProtocol19CommandErrorMessage11deserializeEPc
 .text._ZN13RobotProtocol19CommandErrorMessageC2Eiiii
                0x0000000000000edc       0x58 ./src/robotProtocol/messages/CommandErrorMessage.o
                0x0000000000000edc                _ZN13RobotProtocol19CommandErrorMessageC2Eiiii
                0x0000000000000edc                _ZN13RobotProtocol19CommandErrorMessageC1Eiiii
 .text._Z41__static_initialization_and_destruction_0ii.clone.0
                0x0000000000000f34       0x42 ./src/robotProtocol/messages/CommandErrorMessage.o
 .text._GLOBAL__I__ZN13RobotProtocol19CommandErrorMessage13staticMessageE
                0x0000000000000f76        0xa ./src/robotProtocol/messages/CommandErrorMessage.o
 .text._GLOBAL__D__ZN13RobotProtocol19CommandErrorMessage13staticMessageE
                0x0000000000000f80        0xa ./src/robotProtocol/messages/CommandErrorMessage.o
 .text._ZN13RobotProtocol36CommunicationStartAcknowledgeMessage8readDataEPPc
                0x0000000000000f8a        0x2 ./src/robotProtocol/messages/CommunicationStartAcknowledgeMessage.o
                0x0000000000000f8a                _ZN13RobotProtocol36CommunicationStartAcknowledgeMessage8readDataEPPc
 .text._ZN13RobotProtocol36CommunicationStartAcknowledgeMessage9writeDataEPPc
                0x0000000000000f8c        0x2 ./src/robotProtocol/messages/CommunicationStartAcknowledgeMessage.o
                0x0000000000000f8c                _ZN13RobotProtocol36CommunicationStartAcknowledgeMessage9writeDataEPPc
 .text._ZN13RobotProtocol36CommunicationStartAcknowledgeMessage16getMessageLengthEv
                0x0000000000000f8e        0x6 ./src/robotProtocol/messages/CommunicationStartAcknowledgeMessage.o
                0x0000000000000f8e                _ZN13RobotProtocol36CommunicationStartAcknowledgeMessage16getMessageLengthEv
 .text._ZN13RobotProtocol36CommunicationStartAcknowledgeMessageD2Ev
                0x0000000000000f94       0x10 ./src/robotProtocol/messages/CommunicationStartAcknowledgeMessage.o
                0x0000000000000f94                _ZN13RobotProtocol36CommunicationStartAcknowledgeMessageD1Ev
                0x0000000000000f94                _ZN13RobotProtocol36CommunicationStartAcknowledgeMessageD2Ev
 .text._ZN13RobotProtocol36CommunicationStartAcknowledgeMessageD0Ev
                0x0000000000000fa4       0x20 ./src/robotProtocol/messages/CommunicationStartAcknowledgeMessage.o
                0x0000000000000fa4                _ZN13RobotProtocol36CommunicationStartAcknowledgeMessageD0Ev
 .text._ZN13RobotProtocol36CommunicationStartAcknowledgeMessage11deserializeEPc
                0x0000000000000fc4       0x18 ./src/robotProtocol/messages/CommunicationStartAcknowledgeMessage.o
                0x0000000000000fc4                _ZN13RobotProtocol36CommunicationStartAcknowledgeMessage11deserializeEPc
 .text._ZN13RobotProtocol36CommunicationStartAcknowledgeMessageC2Eii
                0x0000000000000fdc       0x38 ./src/robotProtocol/messages/CommunicationStartAcknowledgeMessage.o
                0x0000000000000fdc                _ZN13RobotProtocol36CommunicationStartAcknowledgeMessageC2Eii
                0x0000000000000fdc                _ZN13RobotProtocol36CommunicationStartAcknowledgeMessageC1Eii
 .text._Z41__static_initialization_and_destruction_0ii.clone.0
                0x0000000000001014       0x32 ./src/robotProtocol/messages/CommunicationStartAcknowledgeMessage.o
 .text._GLOBAL__I__ZN13RobotProtocol36CommunicationStartAcknowledgeMessage13staticMessageE
                0x0000000000001046        0xa ./src/robotProtocol/messages/CommunicationStartAcknowledgeMessage.o
 .text._GLOBAL__D__ZN13RobotProtocol36CommunicationStartAcknowledgeMessage13staticMessageE
                0x0000000000001050        0xa ./src/robotProtocol/messages/CommunicationStartAcknowledgeMessage.o
 .text._ZN13RobotProtocol25CommunicationStartMessage8readDataEPPc
                0x000000000000105a        0x2 ./src/robotProtocol/messages/CommunicationStartMessage.o
                0x000000000000105a                _ZN13RobotProtocol25CommunicationStartMessage8readDataEPPc
 .text._ZN13RobotProtocol25CommunicationStartMessage9writeDataEPPc
                0x000000000000105c        0x2 ./src/robotProtocol/messages/CommunicationStartMessage.o
                0x000000000000105c                _ZN13RobotProtocol25CommunicationStartMessage9writeDataEPPc
 .text._ZN13RobotProtocol25CommunicationStartMessage16getMessageLengthEv
                0x000000000000105e        0x6 ./src/robotProtocol/messages/CommunicationStartMessage.o
                0x000000000000105e                _ZN13RobotProtocol25CommunicationStartMessage16getMessageLengthEv
 .text._ZN13RobotProtocol25CommunicationStartMessageD2Ev
                0x0000000000001064       0x10 ./src/robotProtocol/messages/CommunicationStartMessage.o
                0x0000000000001064                _ZN13RobotProtocol25CommunicationStartMessageD2Ev
                0x0000000000001064                _ZN13RobotProtocol25CommunicationStartMessageD1Ev
 .text._ZN13RobotProtocol25CommunicationStartMessageD0Ev
                0x0000000000001074       0x20 ./src/robotProtocol/messages/CommunicationStartMessage.o
                0x0000000000001074                _ZN13RobotProtocol25CommunicationStartMessageD0Ev
 .text._ZN13RobotProtocol25CommunicationStartMessage11deserializeEPc
                0x0000000000001094       0x18 ./src/robotProtocol/messages/CommunicationStartMessage.o
                0x0000000000001094                _ZN13RobotProtocol25CommunicationStartMessage11deserializeEPc
 .text._ZN13RobotProtocol25CommunicationStartMessageC2Eii
                0x00000000000010ac       0x38 ./src/robotProtocol/messages/CommunicationStartMessage.o
                0x00000000000010ac                _ZN13RobotProtocol25CommunicationStartMessageC2Eii
                0x00000000000010ac                _ZN13RobotProtocol25CommunicationStartMessageC1Eii
 .text._Z41__static_initialization_and_destruction_0ii.clone.0
                0x00000000000010e4       0x32 ./src/robotProtocol/messages/CommunicationStartMessage.o
 .text._GLOBAL__I__ZN13RobotProtocol25CommunicationStartMessage13staticMessageE
                0x0000000000001116        0xa ./src/robotProtocol/messages/CommunicationStartMessage.o
 .text._GLOBAL__D__ZN13RobotProtocol25CommunicationStartMessage13staticMessageE
                0x0000000000001120        0xa ./src/robotProtocol/messages/CommunicationStartMessage.o
 .text._ZN13RobotProtocol24CommunicationStopMessage8readDataEPPc
                0x000000000000112a        0x2 ./src/robotProtocol/messages/CommunicationStopMessage.o
                0x000000000000112a                _ZN13RobotProtocol24CommunicationStopMessage8readDataEPPc
 .text._ZN13RobotProtocol24CommunicationStopMessage9writeDataEPPc
                0x000000000000112c        0x2 ./src/robotProtocol/messages/CommunicationStopMessage.o
                0x000000000000112c                _ZN13RobotProtocol24CommunicationStopMessage9writeDataEPPc
 .text._ZN13RobotProtocol24CommunicationStopMessage16getMessageLengthEv
                0x000000000000112e        0x6 ./src/robotProtocol/messages/CommunicationStopMessage.o
                0x000000000000112e                _ZN13RobotProtocol24CommunicationStopMessage16getMessageLengthEv
 .text._ZN13RobotProtocol24CommunicationStopMessageD2Ev
                0x0000000000001134       0x10 ./src/robotProtocol/messages/CommunicationStopMessage.o
                0x0000000000001134                _ZN13RobotProtocol24CommunicationStopMessageD1Ev
                0x0000000000001134                _ZN13RobotProtocol24CommunicationStopMessageD2Ev
 .text._ZN13RobotProtocol24CommunicationStopMessageD0Ev
                0x0000000000001144       0x20 ./src/robotProtocol/messages/CommunicationStopMessage.o
                0x0000000000001144                _ZN13RobotProtocol24CommunicationStopMessageD0Ev
 .text._ZN13RobotProtocol24CommunicationStopMessage11deserializeEPc
                0x0000000000001164       0x18 ./src/robotProtocol/messages/CommunicationStopMessage.o
                0x0000000000001164                _ZN13RobotProtocol24CommunicationStopMessage11deserializeEPc
 .text._ZN13RobotProtocol24CommunicationStopMessageC2Eii
                0x000000000000117c       0x38 ./src/robotProtocol/messages/CommunicationStopMessage.o
                0x000000000000117c                _ZN13RobotProtocol24CommunicationStopMessageC1Eii
                0x000000000000117c                _ZN13RobotProtocol24CommunicationStopMessageC2Eii
 .text._Z41__static_initialization_and_destruction_0ii.clone.0
                0x00000000000011b4       0x32 ./src/robotProtocol/messages/CommunicationStopMessage.o
 .text._GLOBAL__I__ZN13RobotProtocol24CommunicationStopMessage13staticMessageE
                0x00000000000011e6        0xa ./src/robotProtocol/messages/CommunicationStopMessage.o
 .text._GLOBAL__D__ZN13RobotProtocol24CommunicationStopMessage13staticMessageE
                0x00000000000011f0        0xa ./src/robotProtocol/messages/CommunicationStopMessage.o
 .text._ZN13RobotProtocol25DestinationReachedMessage8readDataEPPc
                0x00000000000011fa        0x2 ./src/robotProtocol/messages/DestinationReachedMessage.o
                0x00000000000011fa                _ZN13RobotProtocol25DestinationReachedMessage8readDataEPPc
 .text._ZN13RobotProtocol25DestinationReachedMessage9writeDataEPPc
                0x00000000000011fc        0x2 ./src/robotProtocol/messages/DestinationReachedMessage.o
                0x00000000000011fc                _ZN13RobotProtocol25DestinationReachedMessage9writeDataEPPc
 .text._ZN13RobotProtocol25DestinationReachedMessage16getMessageLengthEv
                0x00000000000011fe        0x6 ./src/robotProtocol/messages/DestinationReachedMessage.o
                0x00000000000011fe                _ZN13RobotProtocol25DestinationReachedMessage16getMessageLengthEv
 .text._ZN13RobotProtocol25DestinationReachedMessageD2Ev
                0x0000000000001204       0x10 ./src/robotProtocol/messages/DestinationReachedMessage.o
                0x0000000000001204                _ZN13RobotProtocol25DestinationReachedMessageD1Ev
                0x0000000000001204                _ZN13RobotProtocol25DestinationReachedMessageD2Ev
 .text._ZN13RobotProtocol25DestinationReachedMessageD0Ev
                0x0000000000001214       0x20 ./src/robotProtocol/messages/DestinationReachedMessage.o
                0x0000000000001214                _ZN13RobotProtocol25DestinationReachedMessageD0Ev
 .text._ZN13RobotProtocol25DestinationReachedMessage11deserializeEPc
                0x0000000000001234       0x18 ./src/robotProtocol/messages/DestinationReachedMessage.o
                0x0000000000001234                _ZN13RobotProtocol25DestinationReachedMessage11deserializeEPc
 .text._ZN13RobotProtocol25DestinationReachedMessageC2Eii
                0x000000000000124c       0x38 ./src/robotProtocol/messages/DestinationReachedMessage.o
                0x000000000000124c                _ZN13RobotProtocol25DestinationReachedMessageC2Eii
                0x000000000000124c                _ZN13RobotProtocol25DestinationReachedMessageC1Eii
 .text._Z41__static_initialization_and_destruction_0ii.clone.0
                0x0000000000001284       0x32 ./src/robotProtocol/messages/DestinationReachedMessage.o
 .text._GLOBAL__I__ZN13RobotProtocol25DestinationReachedMessage13staticMessageE
                0x00000000000012b6        0xa ./src/robotProtocol/messages/DestinationReachedMessage.o
 .text._GLOBAL__D__ZN13RobotProtocol25DestinationReachedMessage13staticMessageE
                0x00000000000012c0        0xa ./src/robotProtocol/messages/DestinationReachedMessage.o
 .text._ZN13RobotProtocol17FollowLineMessage8readDataEPPc
                0x00000000000012ca        0x2 ./src/robotProtocol/messages/FollowLineMessage.o
                0x00000000000012ca                _ZN13RobotProtocol17FollowLineMessage8readDataEPPc
 .text._ZN13RobotProtocol17FollowLineMessage9writeDataEPPc
                0x00000000000012cc        0x2 ./src/robotProtocol/messages/FollowLineMessage.o
                0x00000000000012cc                _ZN13RobotProtocol17FollowLineMessage9writeDataEPPc
 .text._ZN13RobotProtocol17FollowLineMessage16getMessageLengthEv
                0x00000000000012ce        0x6 ./src/robotProtocol/messages/FollowLineMessage.o
                0x00000000000012ce                _ZN13RobotProtocol17FollowLineMessage16getMessageLengthEv
 .text._ZN13RobotProtocol17FollowLineMessageD2Ev
                0x00000000000012d4       0x10 ./src/robotProtocol/messages/FollowLineMessage.o
                0x00000000000012d4                _ZN13RobotProtocol17FollowLineMessageD1Ev
                0x00000000000012d4                _ZN13RobotProtocol17FollowLineMessageD2Ev
 .text._ZN13RobotProtocol17FollowLineMessageD0Ev
                0x00000000000012e4       0x20 ./src/robotProtocol/messages/FollowLineMessage.o
                0x00000000000012e4                _ZN13RobotProtocol17FollowLineMessageD0Ev
 .text._ZN13RobotProtocol17FollowLineMessage11deserializeEPc
                0x0000000000001304       0x18 ./src/robotProtocol/messages/FollowLineMessage.o
                0x0000000000001304                _ZN13RobotProtocol17FollowLineMessage11deserializeEPc
 .text._ZN13RobotProtocol17FollowLineMessageC2Eii
                0x000000000000131c       0x38 ./src/robotProtocol/messages/FollowLineMessage.o
                0x000000000000131c                _ZN13RobotProtocol17FollowLineMessageC1Eii
                0x000000000000131c                _ZN13RobotProtocol17FollowLineMessageC2Eii
 .text._Z41__static_initialization_and_destruction_0ii.clone.0
                0x0000000000001354       0x32 ./src/robotProtocol/messages/FollowLineMessage.o
 .text._GLOBAL__I__ZN13RobotProtocol17FollowLineMessage13staticMessageE
                0x0000000000001386        0xa ./src/robotProtocol/messages/FollowLineMessage.o
 .text._GLOBAL__D__ZN13RobotProtocol17FollowLineMessage13staticMessageE
                0x0000000000001390        0xa ./src/robotProtocol/messages/FollowLineMessage.o
 .text._ZN13RobotProtocol16KeepAliveMessage9writeDataEPPc
                0x000000000000139a       0x5c ./src/robotProtocol/messages/KeepAliveMessage.o
                0x000000000000139a                _ZN13RobotProtocol16KeepAliveMessage9writeDataEPPc
 .text._ZN13RobotProtocol16KeepAliveMessage8readDataEPPc
                0x00000000000013f6       0x70 ./src/robotProtocol/messages/KeepAliveMessage.o
                0x00000000000013f6                _ZN13RobotProtocol16KeepAliveMessage8readDataEPPc
 .text._ZN13RobotProtocol16KeepAliveMessage16getMessageLengthEv
                0x0000000000001466        0xe ./src/robotProtocol/messages/KeepAliveMessage.o
                0x0000000000001466                _ZN13RobotProtocol16KeepAliveMessage16getMessageLengthEv
 .text._ZN13RobotProtocol16KeepAliveMessageD2Ev
                0x0000000000001474       0x10 ./src/robotProtocol/messages/KeepAliveMessage.o
                0x0000000000001474                _ZN13RobotProtocol16KeepAliveMessageD1Ev
                0x0000000000001474                _ZN13RobotProtocol16KeepAliveMessageD2Ev
 .text._ZN13RobotProtocol16KeepAliveMessageD0Ev
                0x0000000000001484       0x20 ./src/robotProtocol/messages/KeepAliveMessage.o
                0x0000000000001484                _ZN13RobotProtocol16KeepAliveMessageD0Ev
 .text._ZN13RobotProtocol16KeepAliveMessage11deserializeEPc
                0x00000000000014a4       0x18 ./src/robotProtocol/messages/KeepAliveMessage.o
                0x00000000000014a4                _ZN13RobotProtocol16KeepAliveMessage11deserializeEPc
 .text._ZN13RobotProtocol16KeepAliveMessageC2Ev
                0x00000000000014bc       0x3c ./src/robotProtocol/messages/KeepAliveMessage.o
                0x00000000000014bc                _ZN13RobotProtocol16KeepAliveMessageC2Ev
                0x00000000000014bc                _ZN13RobotProtocol16KeepAliveMessageC1Ev
 .text._ZN13RobotProtocol16KeepAliveMessageC2Eiii
                0x00000000000014f8       0x48 ./src/robotProtocol/messages/KeepAliveMessage.o
                0x00000000000014f8                _ZN13RobotProtocol16KeepAliveMessageC2Eiii
                0x00000000000014f8                _ZN13RobotProtocol16KeepAliveMessageC1Eiii
 .text._Z41__static_initialization_and_destruction_0ii.clone.0
                0x0000000000001540       0x36 ./src/robotProtocol/messages/KeepAliveMessage.o
 .text._GLOBAL__I__ZN13RobotProtocol16KeepAliveMessage13staticMessageE
                0x0000000000001576        0xa ./src/robotProtocol/messages/KeepAliveMessage.o
 .text._GLOBAL__D__ZN13RobotProtocol16KeepAliveMessage13staticMessageE
                0x0000000000001580        0xa ./src/robotProtocol/messages/KeepAliveMessage.o
 .text._ZN13RobotProtocol20ReadIRSensorsMessage8readDataEPPc
                0x000000000000158a        0x2 ./src/robotProtocol/messages/ReadIRSensorsMessage.o
                0x000000000000158a                _ZN13RobotProtocol20ReadIRSensorsMessage8readDataEPPc
 .text._ZN13RobotProtocol20ReadIRSensorsMessage9writeDataEPPc
                0x000000000000158c        0x2 ./src/robotProtocol/messages/ReadIRSensorsMessage.o
                0x000000000000158c                _ZN13RobotProtocol20ReadIRSensorsMessage9writeDataEPPc
 .text._ZN13RobotProtocol20ReadIRSensorsMessage16getMessageLengthEv
                0x000000000000158e        0x6 ./src/robotProtocol/messages/ReadIRSensorsMessage.o
                0x000000000000158e                _ZN13RobotProtocol20ReadIRSensorsMessage16getMessageLengthEv
 .text._ZN13RobotProtocol20ReadIRSensorsMessageD2Ev
                0x0000000000001594       0x10 ./src/robotProtocol/messages/ReadIRSensorsMessage.o
                0x0000000000001594                _ZN13RobotProtocol20ReadIRSensorsMessageD1Ev
                0x0000000000001594                _ZN13RobotProtocol20ReadIRSensorsMessageD2Ev
 .text._ZN13RobotProtocol20ReadIRSensorsMessageD0Ev
                0x00000000000015a4       0x20 ./src/robotProtocol/messages/ReadIRSensorsMessage.o
                0x00000000000015a4                _ZN13RobotProtocol20ReadIRSensorsMessageD0Ev
 .text._ZN13RobotProtocol20ReadIRSensorsMessageC2Eii
                0x00000000000015c4       0x38 ./src/robotProtocol/messages/ReadIRSensorsMessage.o
                0x00000000000015c4                _ZN13RobotProtocol20ReadIRSensorsMessageC1Eii
                0x00000000000015c4                _ZN13RobotProtocol20ReadIRSensorsMessageC2Eii
 .text._Z41__static_initialization_and_destruction_0ii.clone.0
                0x00000000000015fc       0x32 ./src/robotProtocol/messages/ReadIRSensorsMessage.o
 .text._GLOBAL__I__ZN13RobotProtocol20ReadIRSensorsMessage13staticMessageE
                0x000000000000162e        0xa ./src/robotProtocol/messages/ReadIRSensorsMessage.o
 .text._GLOBAL__D__ZN13RobotProtocol20ReadIRSensorsMessage13staticMessageE
                0x0000000000001638        0xa ./src/robotProtocol/messages/ReadIRSensorsMessage.o
 .text._ZN13RobotProtocol25ReadIRSensorsReplyMessage9writeDataEPPc
                0x0000000000001642       0x80 ./src/robotProtocol/messages/ReadIRSensorsReplyMessage.o
                0x0000000000001642                _ZN13RobotProtocol25ReadIRSensorsReplyMessage9writeDataEPPc
 .text._ZN13RobotProtocol25ReadIRSensorsReplyMessage8readDataEPPc
                0x00000000000016c2       0xd0 ./src/robotProtocol/messages/ReadIRSensorsReplyMessage.o
                0x00000000000016c2                _ZN13RobotProtocol25ReadIRSensorsReplyMessage8readDataEPPc
 .text._ZN13RobotProtocol25ReadIRSensorsReplyMessage16getMessageLengthEv
                0x0000000000001792        0xe ./src/robotProtocol/messages/ReadIRSensorsReplyMessage.o
                0x0000000000001792                _ZN13RobotProtocol25ReadIRSensorsReplyMessage16getMessageLengthEv
 .text._ZN13RobotProtocol25ReadIRSensorsReplyMessageD2Ev
                0x00000000000017a0       0x10 ./src/robotProtocol/messages/ReadIRSensorsReplyMessage.o
                0x00000000000017a0                _ZN13RobotProtocol25ReadIRSensorsReplyMessageD1Ev
                0x00000000000017a0                _ZN13RobotProtocol25ReadIRSensorsReplyMessageD2Ev
 .text._ZN13RobotProtocol25ReadIRSensorsReplyMessageD0Ev
                0x00000000000017b0       0x20 ./src/robotProtocol/messages/ReadIRSensorsReplyMessage.o
                0x00000000000017b0                _ZN13RobotProtocol25ReadIRSensorsReplyMessageD0Ev
 .text._Z41__static_initialization_and_destruction_0ii.clone.0
                0x00000000000017d0       0x72 ./src/robotProtocol/messages/ReadIRSensorsReplyMessage.o
 .text._GLOBAL__I__ZN13RobotProtocol25ReadIRSensorsReplyMessage13staticMessageE
                0x0000000000001842        0xa ./src/robotProtocol/messages/ReadIRSensorsReplyMessage.o
 .text._GLOBAL__D__ZN13RobotProtocol25ReadIRSensorsReplyMessage13staticMessageE
                0x000000000000184c        0xa ./src/robotProtocol/messages/ReadIRSensorsReplyMessage.o
 .text._ZN13RobotProtocol19ReadUSSensorMessage8readDataEPPc
                0x0000000000001856        0x2 ./src/robotProtocol/messages/ReadUSSensorMessage.o
                0x0000000000001856                _ZN13RobotProtocol19ReadUSSensorMessage8readDataEPPc
 .text._ZN13RobotProtocol19ReadUSSensorMessage9writeDataEPPc
                0x0000000000001858        0x2 ./src/robotProtocol/messages/ReadUSSensorMessage.o
                0x0000000000001858                _ZN13RobotProtocol19ReadUSSensorMessage9writeDataEPPc
 .text._ZN13RobotProtocol19ReadUSSensorMessage16getMessageLengthEv
                0x000000000000185a        0x6 ./src/robotProtocol/messages/ReadUSSensorMessage.o
                0x000000000000185a                _ZN13RobotProtocol19ReadUSSensorMessage16getMessageLengthEv
 .text._ZN13RobotProtocol19ReadUSSensorMessageD2Ev
                0x0000000000001860       0x10 ./src/robotProtocol/messages/ReadUSSensorMessage.o
                0x0000000000001860                _ZN13RobotProtocol19ReadUSSensorMessageD1Ev
                0x0000000000001860                _ZN13RobotProtocol19ReadUSSensorMessageD2Ev
 .text._ZN13RobotProtocol19ReadUSSensorMessageD0Ev
                0x0000000000001870       0x20 ./src/robotProtocol/messages/ReadUSSensorMessage.o
                0x0000000000001870                _ZN13RobotProtocol19ReadUSSensorMessageD0Ev
 .text._ZN13RobotProtocol19ReadUSSensorMessageC2Eii
                0x0000000000001890       0x38 ./src/robotProtocol/messages/ReadUSSensorMessage.o
                0x0000000000001890                _ZN13RobotProtocol19ReadUSSensorMessageC1Eii
                0x0000000000001890                _ZN13RobotProtocol19ReadUSSensorMessageC2Eii
 .text._Z41__static_initialization_and_destruction_0ii.clone.0
                0x00000000000018c8       0x32 ./src/robotProtocol/messages/ReadUSSensorMessage.o
 .text._GLOBAL__I__ZN13RobotProtocol19ReadUSSensorMessage13staticMessageE
                0x00000000000018fa        0xa ./src/robotProtocol/messages/ReadUSSensorMessage.o
 .text._GLOBAL__D__ZN13RobotProtocol19ReadUSSensorMessage13staticMessageE
                0x0000000000001904        0xa ./src/robotProtocol/messages/ReadUSSensorMessage.o
 .text._ZN13RobotProtocol24ReadUSSensorReplyMessage9writeDataEPPc
                0x000000000000190e       0x5c ./src/robotProtocol/messages/ReadUSSensorReplyMessage.o
                0x000000000000190e                _ZN13RobotProtocol24ReadUSSensorReplyMessage9writeDataEPPc
 .text._ZN13RobotProtocol24ReadUSSensorReplyMessage8readDataEPPc
                0x000000000000196a       0x70 ./src/robotProtocol/messages/ReadUSSensorReplyMessage.o
                0x000000000000196a                _ZN13RobotProtocol24ReadUSSensorReplyMessage8readDataEPPc
 .text._ZN13RobotProtocol24ReadUSSensorReplyMessage16getMessageLengthEv
                0x00000000000019da        0xe ./src/robotProtocol/messages/ReadUSSensorReplyMessage.o
                0x00000000000019da                _ZN13RobotProtocol24ReadUSSensorReplyMessage16getMessageLengthEv
 .text._ZN13RobotProtocol24ReadUSSensorReplyMessageD2Ev
                0x00000000000019e8       0x10 ./src/robotProtocol/messages/ReadUSSensorReplyMessage.o
                0x00000000000019e8                _ZN13RobotProtocol24ReadUSSensorReplyMessageD2Ev
                0x00000000000019e8                _ZN13RobotProtocol24ReadUSSensorReplyMessageD1Ev
 .text._ZN13RobotProtocol24ReadUSSensorReplyMessageD0Ev
                0x00000000000019f8       0x20 ./src/robotProtocol/messages/ReadUSSensorReplyMessage.o
                0x00000000000019f8                _ZN13RobotProtocol24ReadUSSensorReplyMessageD0Ev
 .text._ZN13RobotProtocol24ReadUSSensorReplyMessageC2Eiii
                0x0000000000001a18       0x48 ./src/robotProtocol/messages/ReadUSSensorReplyMessage.o
                0x0000000000001a18                _ZN13RobotProtocol24ReadUSSensorReplyMessageC1Eiii
                0x0000000000001a18                _ZN13RobotProtocol24ReadUSSensorReplyMessageC2Eiii
 .text._Z41__static_initialization_and_destruction_0ii.clone.0
                0x0000000000001a60       0x36 ./src/robotProtocol/messages/ReadUSSensorReplyMessage.o
 .text._GLOBAL__I__ZN13RobotProtocol24ReadUSSensorReplyMessage13staticMessageE
                0x0000000000001a96        0xa ./src/robotProtocol/messages/ReadUSSensorReplyMessage.o
 .text._GLOBAL__D__ZN13RobotProtocol24ReadUSSensorReplyMessage13staticMessageE
                0x0000000000001aa0        0xa ./src/robotProtocol/messages/ReadUSSensorReplyMessage.o
 .text._Z41__static_initialization_and_destruction_0ii.clone.0
                0x0000000000001aaa       0x3e ./src/robotProtocol/messages/ReusableMessageProxy.o
 .text._ZN13RobotProtocol20ReusableMessageProxy28getDestinationReachedMessageEii
                0x0000000000001ae8       0x2c ./src/robotProtocol/messages/ReusableMessageProxy.o
                0x0000000000001ae8                _ZN13RobotProtocol20ReusableMessageProxy28getDestinationReachedMessageEii
 .text._ZN13RobotProtocol20ReusableMessageProxy19getRobotLostMessageEii
                0x0000000000001b14       0x2c ./src/robotProtocol/messages/ReusableMessageProxy.o
                0x0000000000001b14                _ZN13RobotProtocol20ReusableMessageProxy19getRobotLostMessageEii
 .text._GLOBAL__I__ZN13RobotProtocol20ReusableMessageProxy25destinationReachedMessageE
                0x0000000000001b40        0xa ./src/robotProtocol/messages/ReusableMessageProxy.o
 .text._GLOBAL__D__ZN13RobotProtocol20ReusableMessageProxy25destinationReachedMessageE
                0x0000000000001b4a        0xa ./src/robotProtocol/messages/ReusableMessageProxy.o
 .text._ZN13RobotProtocol16RobotLostMessage8readDataEPPc
                0x0000000000001b54        0x2 ./src/robotProtocol/messages/RobotLostMessage.o
                0x0000000000001b54                _ZN13RobotProtocol16RobotLostMessage8readDataEPPc
 .text._ZN13RobotProtocol16RobotLostMessage9writeDataEPPc
                0x0000000000001b56        0x2 ./src/robotProtocol/messages/RobotLostMessage.o
                0x0000000000001b56                _ZN13RobotProtocol16RobotLostMessage9writeDataEPPc
 .text._ZN13RobotProtocol16RobotLostMessage16getMessageLengthEv
                0x0000000000001b58        0x6 ./src/robotProtocol/messages/RobotLostMessage.o
                0x0000000000001b58                _ZN13RobotProtocol16RobotLostMessage16getMessageLengthEv
 .text._ZN13RobotProtocol16RobotLostMessageD2Ev
                0x0000000000001b5e       0x10 ./src/robotProtocol/messages/RobotLostMessage.o
                0x0000000000001b5e                _ZN13RobotProtocol16RobotLostMessageD2Ev
                0x0000000000001b5e                _ZN13RobotProtocol16RobotLostMessageD1Ev
 .text._ZN13RobotProtocol16RobotLostMessageD0Ev
                0x0000000000001b6e       0x20 ./src/robotProtocol/messages/RobotLostMessage.o
                0x0000000000001b6e                _ZN13RobotProtocol16RobotLostMessageD0Ev
 .text._ZN13RobotProtocol16RobotLostMessage11deserializeEPc
                0x0000000000001b8e       0x18 ./src/robotProtocol/messages/RobotLostMessage.o
                0x0000000000001b8e                _ZN13RobotProtocol16RobotLostMessage11deserializeEPc
 .text._ZN13RobotProtocol16RobotLostMessageC2Eii
                0x0000000000001ba6       0x38 ./src/robotProtocol/messages/RobotLostMessage.o
                0x0000000000001ba6                _ZN13RobotProtocol16RobotLostMessageC1Eii
                0x0000000000001ba6                _ZN13RobotProtocol16RobotLostMessageC2Eii
 .text._Z41__static_initialization_and_destruction_0ii.clone.0
                0x0000000000001bde       0x32 ./src/robotProtocol/messages/RobotLostMessage.o
 .text._GLOBAL__I__ZN13RobotProtocol16RobotLostMessage13staticMessageE
                0x0000000000001c10        0xa ./src/robotProtocol/messages/RobotLostMessage.o
 .text._GLOBAL__D__ZN13RobotProtocol16RobotLostMessage13staticMessageE
                0x0000000000001c1a        0xa ./src/robotProtocol/messages/RobotLostMessage.o
 .text._ZN13RobotProtocol18RobotStatusMessage9writeDataEPPc
                0x0000000000001c24       0xa2 ./src/robotProtocol/messages/RobotStatusMessage.o
                0x0000000000001c24                _ZN13RobotProtocol18RobotStatusMessage9writeDataEPPc
 .text._ZN13RobotProtocol18RobotStatusMessage8readDataEPPc
                0x0000000000001cc6      0x126 ./src/robotProtocol/messages/RobotStatusMessage.o
                0x0000000000001cc6                _ZN13RobotProtocol18RobotStatusMessage8readDataEPPc
 .text._ZN13RobotProtocol18RobotStatusMessage16getMessageLengthEv
                0x0000000000001dec        0xe ./src/robotProtocol/messages/RobotStatusMessage.o
                0x0000000000001dec                _ZN13RobotProtocol18RobotStatusMessage16getMessageLengthEv
 .text._ZN13RobotProtocol18RobotStatusMessageD2Ev
                0x0000000000001dfa       0x10 ./src/robotProtocol/messages/RobotStatusMessage.o
                0x0000000000001dfa                _ZN13RobotProtocol18RobotStatusMessageD2Ev
                0x0000000000001dfa                _ZN13RobotProtocol18RobotStatusMessageD1Ev
 .text._ZN13RobotProtocol18RobotStatusMessageD0Ev
                0x0000000000001e0a       0x20 ./src/robotProtocol/messages/RobotStatusMessage.o
                0x0000000000001e0a                _ZN13RobotProtocol18RobotStatusMessageD0Ev
 .text._Z41__static_initialization_and_destruction_0ii.clone.0
                0x0000000000001e2a       0x82 ./src/robotProtocol/messages/RobotStatusMessage.o
 .text._GLOBAL__I__ZN13RobotProtocol18RobotStatusMessage13staticMessageE
                0x0000000000001eac        0xa ./src/robotProtocol/messages/RobotStatusMessage.o
 .text._GLOBAL__D__ZN13RobotProtocol18RobotStatusMessage13staticMessageE
                0x0000000000001eb6        0xa ./src/robotProtocol/messages/RobotStatusMessage.o
 .text._ZN13RobotProtocol20SetMotorSpeedMessage9writeDataEPPc
                0x0000000000001ec0       0x74 ./src/robotProtocol/messages/SetMotorSpeedMessage.o
                0x0000000000001ec0                _ZN13RobotProtocol20SetMotorSpeedMessage9writeDataEPPc
 .text._ZN13RobotProtocol20SetMotorSpeedMessage8readDataEPPc
                0x0000000000001f34       0xa8 ./src/robotProtocol/messages/SetMotorSpeedMessage.o
                0x0000000000001f34                _ZN13RobotProtocol20SetMotorSpeedMessage8readDataEPPc
 .text._ZN13RobotProtocol20SetMotorSpeedMessage16getMessageLengthEv
                0x0000000000001fdc        0xe ./src/robotProtocol/messages/SetMotorSpeedMessage.o
                0x0000000000001fdc                _ZN13RobotProtocol20SetMotorSpeedMessage16getMessageLengthEv
 .text._ZN13RobotProtocol20SetMotorSpeedMessageD2Ev
                0x0000000000001fea       0x10 ./src/robotProtocol/messages/SetMotorSpeedMessage.o
                0x0000000000001fea                _ZN13RobotProtocol20SetMotorSpeedMessageD2Ev
                0x0000000000001fea                _ZN13RobotProtocol20SetMotorSpeedMessageD1Ev
 .text._ZN13RobotProtocol20SetMotorSpeedMessageD0Ev
                0x0000000000001ffa       0x20 ./src/robotProtocol/messages/SetMotorSpeedMessage.o
                0x0000000000001ffa                _ZN13RobotProtocol20SetMotorSpeedMessageD0Ev
 .text._ZN13RobotProtocol20SetMotorSpeedMessage11deserializeEPc
                0x000000000000201a       0x18 ./src/robotProtocol/messages/SetMotorSpeedMessage.o
                0x000000000000201a                _ZN13RobotProtocol20SetMotorSpeedMessage11deserializeEPc
 .text._ZN13RobotProtocol20SetMotorSpeedMessageC2Eiiii
                0x0000000000002032       0x58 ./src/robotProtocol/messages/SetMotorSpeedMessage.o
                0x0000000000002032                _ZN13RobotProtocol20SetMotorSpeedMessageC2Eiiii
                0x0000000000002032                _ZN13RobotProtocol20SetMotorSpeedMessageC1Eiiii
 .text._Z41__static_initialization_and_destruction_0ii.clone.0
                0x000000000000208a       0x42 ./src/robotProtocol/messages/SetMotorSpeedMessage.o
 .text._ZN13RobotProtocol20SetMotorSpeedMessage12getLeftSpeedEv
                0x00000000000020cc        0x8 ./src/robotProtocol/messages/SetMotorSpeedMessage.o
                0x00000000000020cc                _ZN13RobotProtocol20SetMotorSpeedMessage12getLeftSpeedEv
 .text._ZN13RobotProtocol20SetMotorSpeedMessage13getRightSpeedEv
                0x00000000000020d4        0x8 ./src/robotProtocol/messages/SetMotorSpeedMessage.o
                0x00000000000020d4                _ZN13RobotProtocol20SetMotorSpeedMessage13getRightSpeedEv
 .text._GLOBAL__I__ZN13RobotProtocol20SetMotorSpeedMessage13staticMessageE
                0x00000000000020dc        0xa ./src/robotProtocol/messages/SetMotorSpeedMessage.o
 .text._GLOBAL__D__ZN13RobotProtocol20SetMotorSpeedMessage13staticMessageE
                0x00000000000020e6        0xa ./src/robotProtocol/messages/SetMotorSpeedMessage.o
 .text._ZN13RobotProtocol17TurnAroundMessage8readDataEPPc
                0x00000000000020f0        0x2 ./src/robotProtocol/messages/TurnAroundMessage.o
                0x00000000000020f0                _ZN13RobotProtocol17TurnAroundMessage8readDataEPPc
 .text._ZN13RobotProtocol17TurnAroundMessage9writeDataEPPc
                0x00000000000020f2        0x2 ./src/robotProtocol/messages/TurnAroundMessage.o
                0x00000000000020f2                _ZN13RobotProtocol17TurnAroundMessage9writeDataEPPc
 .text._ZN13RobotProtocol17TurnAroundMessage16getMessageLengthEv
                0x00000000000020f4        0x6 ./src/robotProtocol/messages/TurnAroundMessage.o
                0x00000000000020f4                _ZN13RobotProtocol17TurnAroundMessage16getMessageLengthEv
 .text._ZN13RobotProtocol17TurnAroundMessageD2Ev
                0x00000000000020fa       0x10 ./src/robotProtocol/messages/TurnAroundMessage.o
                0x00000000000020fa                _ZN13RobotProtocol17TurnAroundMessageD2Ev
                0x00000000000020fa                _ZN13RobotProtocol17TurnAroundMessageD1Ev
 .text._ZN13RobotProtocol17TurnAroundMessageD0Ev
                0x000000000000210a       0x20 ./src/robotProtocol/messages/TurnAroundMessage.o
                0x000000000000210a                _ZN13RobotProtocol17TurnAroundMessageD0Ev
 .text._ZN13RobotProtocol17TurnAroundMessage11deserializeEPc
                0x000000000000212a       0x18 ./src/robotProtocol/messages/TurnAroundMessage.o
                0x000000000000212a                _ZN13RobotProtocol17TurnAroundMessage11deserializeEPc
 .text._ZN13RobotProtocol17TurnAroundMessageC2Eii
                0x0000000000002142       0x38 ./src/robotProtocol/messages/TurnAroundMessage.o
                0x0000000000002142                _ZN13RobotProtocol17TurnAroundMessageC1Eii
                0x0000000000002142                _ZN13RobotProtocol17TurnAroundMessageC2Eii
 .text._Z41__static_initialization_and_destruction_0ii.clone.0
                0x000000000000217a       0x32 ./src/robotProtocol/messages/TurnAroundMessage.o
 .text._GLOBAL__I__ZN13RobotProtocol17TurnAroundMessage13staticMessageE
                0x00000000000021ac        0xa ./src/robotProtocol/messages/TurnAroundMessage.o
 .text._GLOBAL__D__ZN13RobotProtocol17TurnAroundMessage13staticMessageE
                0x00000000000021b6        0xa ./src/robotProtocol/messages/TurnAroundMessage.o
 .text._ZN13RobotProtocol15TurnLeftMessage8readDataEPPc
                0x00000000000021c0        0x2 ./src/robotProtocol/messages/TurnLeftMessage.o
                0x00000000000021c0                _ZN13RobotProtocol15TurnLeftMessage8readDataEPPc
 .text._ZN13RobotProtocol15TurnLeftMessage9writeDataEPPc
                0x00000000000021c2        0x2 ./src/robotProtocol/messages/TurnLeftMessage.o
                0x00000000000021c2                _ZN13RobotProtocol15TurnLeftMessage9writeDataEPPc
 .text._ZN13RobotProtocol15TurnLeftMessage16getMessageLengthEv
                0x00000000000021c4        0x6 ./src/robotProtocol/messages/TurnLeftMessage.o
                0x00000000000021c4                _ZN13RobotProtocol15TurnLeftMessage16getMessageLengthEv
 .text._ZN13RobotProtocol15TurnLeftMessageD2Ev
                0x00000000000021ca       0x10 ./src/robotProtocol/messages/TurnLeftMessage.o
                0x00000000000021ca                _ZN13RobotProtocol15TurnLeftMessageD1Ev
                0x00000000000021ca                _ZN13RobotProtocol15TurnLeftMessageD2Ev
 .text._ZN13RobotProtocol15TurnLeftMessageD0Ev
                0x00000000000021da       0x20 ./src/robotProtocol/messages/TurnLeftMessage.o
                0x00000000000021da                _ZN13RobotProtocol15TurnLeftMessageD0Ev
 .text._ZN13RobotProtocol15TurnLeftMessage11deserializeEPc
                0x00000000000021fa       0x18 ./src/robotProtocol/messages/TurnLeftMessage.o
                0x00000000000021fa                _ZN13RobotProtocol15TurnLeftMessage11deserializeEPc
 .text._ZN13RobotProtocol15TurnLeftMessageC2Eii
                0x0000000000002212       0x38 ./src/robotProtocol/messages/TurnLeftMessage.o
                0x0000000000002212                _ZN13RobotProtocol15TurnLeftMessageC2Eii
                0x0000000000002212                _ZN13RobotProtocol15TurnLeftMessageC1Eii
 .text._Z41__static_initialization_and_destruction_0ii.clone.0
                0x000000000000224a       0x32 ./src/robotProtocol/messages/TurnLeftMessage.o
 .text._GLOBAL__I__ZN13RobotProtocol15TurnLeftMessage13staticMessageE
                0x000000000000227c        0xa ./src/robotProtocol/messages/TurnLeftMessage.o
 .text._GLOBAL__D__ZN13RobotProtocol15TurnLeftMessage13staticMessageE
                0x0000000000002286        0xa ./src/robotProtocol/messages/TurnLeftMessage.o
 .text._ZN13RobotProtocol16TurnRightMessage8readDataEPPc
                0x0000000000002290        0x2 ./src/robotProtocol/messages/TurnRightMessage.o
                0x0000000000002290                _ZN13RobotProtocol16TurnRightMessage8readDataEPPc
 .text._ZN13RobotProtocol16TurnRightMessage9writeDataEPPc
                0x0000000000002292        0x2 ./src/robotProtocol/messages/TurnRightMessage.o
                0x0000000000002292                _ZN13RobotProtocol16TurnRightMessage9writeDataEPPc
 .text._ZN13RobotProtocol16TurnRightMessage16getMessageLengthEv
                0x0000000000002294        0x6 ./src/robotProtocol/messages/TurnRightMessage.o
                0x0000000000002294                _ZN13RobotProtocol16TurnRightMessage16getMessageLengthEv
 .text._ZN13RobotProtocol16TurnRightMessageD2Ev
                0x000000000000229a       0x10 ./src/robotProtocol/messages/TurnRightMessage.o
                0x000000000000229a                _ZN13RobotProtocol16TurnRightMessageD2Ev
                0x000000000000229a                _ZN13RobotProtocol16TurnRightMessageD1Ev
 .text._ZN13RobotProtocol16TurnRightMessageD0Ev
                0x00000000000022aa       0x20 ./src/robotProtocol/messages/TurnRightMessage.o
                0x00000000000022aa                _ZN13RobotProtocol16TurnRightMessageD0Ev
 .text._ZN13RobotProtocol16TurnRightMessage11deserializeEPc
                0x00000000000022ca       0x18 ./src/robotProtocol/messages/TurnRightMessage.o
                0x00000000000022ca                _ZN13RobotProtocol16TurnRightMessage11deserializeEPc
 .text._ZN13RobotProtocol16TurnRightMessageC2Eii
                0x00000000000022e2       0x38 ./src/robotProtocol/messages/TurnRightMessage.o
                0x00000000000022e2                _ZN13RobotProtocol16TurnRightMessageC2Eii
                0x00000000000022e2                _ZN13RobotProtocol16TurnRightMessageC1Eii
 .text._Z41__static_initialization_and_destruction_0ii.clone.0
                0x000000000000231a       0x32 ./src/robotProtocol/messages/TurnRightMessage.o
 .text._GLOBAL__I__ZN13RobotProtocol16TurnRightMessage13staticMessageE
                0x000000000000234c        0xa ./src/robotProtocol/messages/TurnRightMessage.o
 .text._GLOBAL__D__ZN13RobotProtocol16TurnRightMessage13staticMessageE
                0x0000000000002356        0xa ./src/robotProtocol/messages/TurnRightMessage.o
 .text._ZN13RobotProtocol17FollowLineCommand12isContinuousEv
                0x0000000000002360        0x4 ./src/robotProtocol/commands/FollowLineCommand.o
                0x0000000000002360                _ZN13RobotProtocol17FollowLineCommand12isContinuousEv
 .text._ZN13RobotProtocol17FollowLineCommand16resetFromMessageEPNS_7MessageE
                0x0000000000002364       0x36 ./src/robotProtocol/commands/FollowLineCommand.o
                0x0000000000002364                _ZN13RobotProtocol17FollowLineCommand16resetFromMessageEPNS_7MessageE
 .text._ZN13RobotProtocol17FollowLineCommand5resetEv
                0x000000000000239a       0x36 ./src/robotProtocol/commands/FollowLineCommand.o
                0x000000000000239a                _ZN13RobotProtocol17FollowLineCommand5resetEv
 .text._ZN13RobotProtocol17FollowLineCommand7executeEi
                0x00000000000023d0      0x1d6 ./src/robotProtocol/commands/FollowLineCommand.o
                0x00000000000023d0                _ZN13RobotProtocol17FollowLineCommand7executeEi
 .text._ZN13RobotProtocol17FollowLineCommandD2Ev
                0x00000000000025a6       0x10 ./src/robotProtocol/commands/FollowLineCommand.o
                0x00000000000025a6                _ZN13RobotProtocol17FollowLineCommandD2Ev
                0x00000000000025a6                _ZN13RobotProtocol17FollowLineCommandD1Ev
 .text._ZN13RobotProtocol17FollowLineCommandD0Ev
                0x00000000000025b6       0x20 ./src/robotProtocol/commands/FollowLineCommand.o
                0x00000000000025b6                _ZN13RobotProtocol17FollowLineCommandD0Ev
 .text._ZN13RobotProtocol17FollowLineCommandC2EPNS_2N6E
                0x00000000000025d6       0x28 ./src/robotProtocol/commands/FollowLineCommand.o
                0x00000000000025d6                _ZN13RobotProtocol17FollowLineCommandC1EPNS_2N6E
                0x00000000000025d6                _ZN13RobotProtocol17FollowLineCommandC2EPNS_2N6E
 .text._GLOBAL__I__ZN13RobotProtocol17FollowLineCommandC2EPNS_2N6E
                0x00000000000025fe       0x1a ./src/robotProtocol/commands/FollowLineCommand.o
 .text._GLOBAL__I__ZN13RobotProtocol20ReadIRSensorsCommandC2EPNS_2N6E
                0x0000000000002618       0x1a ./src/robotProtocol/commands/ReadIRSensorsCommand.o
 .text._GLOBAL__I__ZN13RobotProtocol19ReadUSSensorCommandC2EPNS_2N6E
                0x0000000000002632       0x1a ./src/robotProtocol/commands/ReadUSSensorCommand.o
 .text._GLOBAL__I__ZN13RobotProtocol20SendKeepAliveCommandC2EPNS_2N6EPNS_7MessageE
                0x000000000000264c       0x1a ./src/robotProtocol/commands/SendKeepAliveCommand.o
 .text._ZN13RobotProtocol20SetMotorSpeedCommand12isContinuousEv
                0x0000000000002666        0x4 ./src/robotProtocol/commands/SetMotorSpeedCommand.o
                0x0000000000002666                _ZN13RobotProtocol20SetMotorSpeedCommand12isContinuousEv
 .text._ZN13RobotProtocol20SetMotorSpeedCommand5resetEv
                0x000000000000266a        0x8 ./src/robotProtocol/commands/SetMotorSpeedCommand.o
                0x000000000000266a                _ZN13RobotProtocol20SetMotorSpeedCommand5resetEv
 .text._ZN13RobotProtocol20SetMotorSpeedCommand7executeEi
                0x0000000000002672        0x2 ./src/robotProtocol/commands/SetMotorSpeedCommand.o
                0x0000000000002672                _ZN13RobotProtocol20SetMotorSpeedCommand7executeEi
 .text._ZN13RobotProtocol20SetMotorSpeedCommandD2Ev
                0x0000000000002674       0x10 ./src/robotProtocol/commands/SetMotorSpeedCommand.o
                0x0000000000002674                _ZN13RobotProtocol20SetMotorSpeedCommandD1Ev
                0x0000000000002674                _ZN13RobotProtocol20SetMotorSpeedCommandD2Ev
 .text._ZN13RobotProtocol20SetMotorSpeedCommandD0Ev
                0x0000000000002684       0x20 ./src/robotProtocol/commands/SetMotorSpeedCommand.o
                0x0000000000002684                _ZN13RobotProtocol20SetMotorSpeedCommandD0Ev
 .text._ZN13RobotProtocol20SetMotorSpeedCommandC2EPNS_2N6E
                0x00000000000026a4       0x18 ./src/robotProtocol/commands/SetMotorSpeedCommand.o
                0x00000000000026a4                _ZN13RobotProtocol20SetMotorSpeedCommandC2EPNS_2N6E
                0x00000000000026a4                _ZN13RobotProtocol20SetMotorSpeedCommandC1EPNS_2N6E
 .text._ZN13RobotProtocol20SetMotorSpeedCommand12setLeftSpeedEi
                0x00000000000026bc       0x2a ./src/robotProtocol/commands/SetMotorSpeedCommand.o
                0x00000000000026bc                _ZN13RobotProtocol20SetMotorSpeedCommand12setLeftSpeedEi
 .text._ZN13RobotProtocol20SetMotorSpeedCommand13setRightSpeedEi
                0x00000000000026e6       0x2a ./src/robotProtocol/commands/SetMotorSpeedCommand.o
                0x00000000000026e6                _ZN13RobotProtocol20SetMotorSpeedCommand13setRightSpeedEi
 .text._ZN13RobotProtocol20SetMotorSpeedCommand16resetFromMessageEPNS_7MessageE
                0x0000000000002710       0x38 ./src/robotProtocol/commands/SetMotorSpeedCommand.o
                0x0000000000002710                _ZN13RobotProtocol20SetMotorSpeedCommand16resetFromMessageEPNS_7MessageE
 .text._GLOBAL__I__ZN13RobotProtocol20SetMotorSpeedCommandC2EPNS_2N6E
                0x0000000000002748       0x1a ./src/robotProtocol/commands/SetMotorSpeedCommand.o
 .text._ZN13RobotProtocol11TurnCommand12isContinuousEv
                0x0000000000002762        0x4 ./src/robotProtocol/commands/TurnCommand.o
                0x0000000000002762                _ZN13RobotProtocol11TurnCommand12isContinuousEv
 .text._ZN13RobotProtocol11TurnCommand5resetEv
                0x0000000000002766       0x32 ./src/robotProtocol/commands/TurnCommand.o
                0x0000000000002766                _ZN13RobotProtocol11TurnCommand5resetEv
 .text._ZN13RobotProtocol11TurnCommand7executeEi
                0x0000000000002798      0x11a ./src/robotProtocol/commands/TurnCommand.o
                0x0000000000002798                _ZN13RobotProtocol11TurnCommand7executeEi
 .text._ZN13RobotProtocol11TurnCommand16resetFromMessageEPNS_7MessageE
                0x00000000000028b2       0x72 ./src/robotProtocol/commands/TurnCommand.o
                0x00000000000028b2                _ZN13RobotProtocol11TurnCommand16resetFromMessageEPNS_7MessageE
 .text._ZN13RobotProtocol11TurnCommandD2Ev
                0x0000000000002924       0x10 ./src/robotProtocol/commands/TurnCommand.o
                0x0000000000002924                _ZN13RobotProtocol11TurnCommandD1Ev
                0x0000000000002924                _ZN13RobotProtocol11TurnCommandD2Ev
 .text._ZN13RobotProtocol11TurnCommandD0Ev
                0x0000000000002934       0x20 ./src/robotProtocol/commands/TurnCommand.o
                0x0000000000002934                _ZN13RobotProtocol11TurnCommandD0Ev
 .text._ZN13RobotProtocol11TurnCommandC2EPNS_2N6E
                0x0000000000002954       0x28 ./src/robotProtocol/commands/TurnCommand.o
                0x0000000000002954                _ZN13RobotProtocol11TurnCommandC2EPNS_2N6E
                0x0000000000002954                _ZN13RobotProtocol11TurnCommandC1EPNS_2N6E
 .text._GLOBAL__I__ZN13RobotProtocol11TurnCommandC2EPNS_2N6E
                0x000000000000297c       0x1a ./src/robotProtocol/commands/TurnCommand.o
 .text._ZN13RobotProtocol7CommandD2Ev
                0x0000000000002996        0xc ./src/robotProtocol/Command.o
                0x0000000000002996                _ZN13RobotProtocol7CommandD1Ev
                0x0000000000002996                _ZN13RobotProtocol7CommandD2Ev
 .text._ZN13RobotProtocol7CommandD0Ev
                0x00000000000029a2       0x10 ./src/robotProtocol/Command.o
                0x00000000000029a2                _ZN13RobotProtocol7CommandD0Ev
 .text._ZN13RobotProtocol7CommandC2EPNS_2N6E
                0x00000000000029b2       0x12 ./src/robotProtocol/Command.o
                0x00000000000029b2                _ZN13RobotProtocol7CommandC2EPNS_2N6E
                0x00000000000029b2                _ZN13RobotProtocol7CommandC1EPNS_2N6E
 .text._ZN13RobotProtocol7Command6isDoneEv
                0x00000000000029c4        0x6 ./src/robotProtocol/Command.o
                0x00000000000029c4                _ZN13RobotProtocol7Command6isDoneEv
 .text._GLOBAL__I__ZN13RobotProtocol7CommandC2EPNS_2N6E
                0x00000000000029ca       0x1a ./src/robotProtocol/Command.o
 .text._ZN13RobotProtocol7MessageD2Ev
                0x00000000000029e4        0xc ./src/robotProtocol/Message.o
                0x00000000000029e4                _ZN13RobotProtocol7MessageD2Ev
                0x00000000000029e4                _ZN13RobotProtocol7MessageD1Ev
 .text._ZN13RobotProtocol7Message16getMessageLengthEv
                0x00000000000029f0        0x6 ./src/robotProtocol/Message.o
                0x00000000000029f0                _ZN13RobotProtocol7Message16getMessageLengthEv
 .text._ZN13RobotProtocol7MessageD0Ev
                0x00000000000029f6       0x10 ./src/robotProtocol/Message.o
                0x00000000000029f6                _ZN13RobotProtocol7MessageD0Ev
 .text._ZN13RobotProtocol7MessageC2Eiiiii
                0x0000000000002a06       0x30 ./src/robotProtocol/Message.o
                0x0000000000002a06                _ZN13RobotProtocol7MessageC1Eiiiii
                0x0000000000002a06                _ZN13RobotProtocol7MessageC2Eiiiii
 .text._ZN13RobotProtocol7Message12getMessageIDEv
                0x0000000000002a36        0x8 ./src/robotProtocol/Message.o
                0x0000000000002a36                _ZN13RobotProtocol7Message12getMessageIDEv
 .text._ZN13RobotProtocol7Message12setToAddressEi
                0x0000000000002a3e        0x8 ./src/robotProtocol/Message.o
                0x0000000000002a3e                _ZN13RobotProtocol7Message12setToAddressEi
 .text._ZN13RobotProtocol7Message14setFromAddressEi
                0x0000000000002a46        0x8 ./src/robotProtocol/Message.o
                0x0000000000002a46                _ZN13RobotProtocol7Message14setFromAddressEi
 .text._ZN13RobotProtocol7Message10readHeaderEPPc
                0x0000000000002a4e      0x11a ./src/robotProtocol/Message.o
                0x0000000000002a4e                _ZN13RobotProtocol7Message10readHeaderEPPc
 .text._ZN13RobotProtocol7Message10initializeEPc
                0x0000000000002b68       0x4a ./src/robotProtocol/Message.o
                0x0000000000002b68                _ZN13RobotProtocol7Message10initializeEPc
 .text._ZN13RobotProtocol7Message11writeHeaderEPPc
                0x0000000000002bb2       0xb8 ./src/robotProtocol/Message.o
                0x0000000000002bb2                _ZN13RobotProtocol7Message11writeHeaderEPPc
 .text._ZN13RobotProtocol7Message16serializeMessageEPc
                0x0000000000002c6a       0x4a ./src/robotProtocol/Message.o
                0x0000000000002c6a                _ZN13RobotProtocol7Message16serializeMessageEPc
 .text._ZN13RobotProtocol14MessageManagerD2Ev
                0x0000000000002cb4        0xc ./src/robotProtocol/MessageManager.o
                0x0000000000002cb4                _ZN13RobotProtocol14MessageManagerD1Ev
                0x0000000000002cb4                _ZN13RobotProtocol14MessageManagerD2Ev
 .text._ZN13RobotProtocol14MessageManagerD0Ev
                0x0000000000002cc0       0x10 ./src/robotProtocol/MessageManager.o
                0x0000000000002cc0                _ZN13RobotProtocol14MessageManagerD0Ev
 .text._ZN13RobotProtocol14MessageManagerC2EPNS_15MessageReceiverEPNS_13MessageSenderE
                0x0000000000002cd0       0x6c ./src/robotProtocol/MessageManager.o
                0x0000000000002cd0                _ZN13RobotProtocol14MessageManagerC2EPNS_15MessageReceiverEPNS_13MessageSenderE
                0x0000000000002cd0                _ZN13RobotProtocol14MessageManagerC1EPNS_15MessageReceiverEPNS_13MessageSenderE
 .text._ZN13RobotProtocol14MessageManager17hasPendingMessageEv
                0x0000000000002d3c       0x1a ./src/robotProtocol/MessageManager.o
                0x0000000000002d3c                _ZN13RobotProtocol14MessageManager17hasPendingMessageEv
 .text._ZN13RobotProtocol14MessageManager11getMidIndexEi
                0x0000000000002d56       0x34 ./src/robotProtocol/MessageManager.o
                0x0000000000002d56                _ZN13RobotProtocol14MessageManager11getMidIndexEi
 .text._ZN13RobotProtocol14MessageManager11sendMessageERNS_7MessageE
                0x0000000000002d8a       0xb0 ./src/robotProtocol/MessageManager.o
                0x0000000000002d8a                _ZN13RobotProtocol14MessageManager11sendMessageERNS_7MessageE
 .text._ZN13RobotProtocol14MessageManager15addDeserializerEiPFPNS_7MessageEPcE
                0x0000000000002e3a       0x94 ./src/robotProtocol/MessageManager.o
                0x0000000000002e3a                _ZN13RobotProtocol14MessageManager15addDeserializerEiPFPNS_7MessageEPcE
 .text._ZN13RobotProtocol15MessageReceiverD2Ev
                0x0000000000002ece        0xc ./src/robotProtocol/MessageReceiver.o
                0x0000000000002ece                _ZN13RobotProtocol15MessageReceiverD2Ev
                0x0000000000002ece                _ZN13RobotProtocol15MessageReceiverD1Ev
 .text._ZN13RobotProtocol15MessageReceiverD0Ev
                0x0000000000002eda       0x10 ./src/robotProtocol/MessageReceiver.o
                0x0000000000002eda                _ZN13RobotProtocol15MessageReceiverD0Ev
 .text._ZN13RobotProtocol15MessageReceiverC2Ev
                0x0000000000002eea        0xc ./src/robotProtocol/MessageReceiver.o
                0x0000000000002eea                _ZN13RobotProtocol15MessageReceiverC1Ev
                0x0000000000002eea                _ZN13RobotProtocol15MessageReceiverC2Ev
 .text._ZN13RobotProtocol13MessageSenderD2Ev
                0x0000000000002ef6        0xc ./src/robotProtocol/MessageSender.o
                0x0000000000002ef6                _ZN13RobotProtocol13MessageSenderD1Ev
                0x0000000000002ef6                _ZN13RobotProtocol13MessageSenderD2Ev
 .text._ZN13RobotProtocol13MessageSenderD0Ev
                0x0000000000002f02       0x10 ./src/robotProtocol/MessageSender.o
                0x0000000000002f02                _ZN13RobotProtocol13MessageSenderD0Ev
 .text._ZN13RobotProtocol13MessageSenderC2Ev
                0x0000000000002f12        0xc ./src/robotProtocol/MessageSender.o
                0x0000000000002f12                _ZN13RobotProtocol13MessageSenderC1Ev
                0x0000000000002f12                _ZN13RobotProtocol13MessageSenderC2Ev
 .text._ZN13RobotProtocol2N6D2Ev
                0x0000000000002f1e       0x14 ./src/robotProtocol/N6.o
                0x0000000000002f1e                _ZN13RobotProtocol2N6D1Ev
                0x0000000000002f1e                _ZN13RobotProtocol2N6D2Ev
 .text._ZN13RobotProtocol2N6D0Ev
                0x0000000000002f32       0x24 ./src/robotProtocol/N6.o
                0x0000000000002f32                _ZN13RobotProtocol2N6D0Ev
 .text._ZN13RobotProtocol2N610getRobotIdEv
                0x0000000000002f56        0x8 ./src/robotProtocol/N6.o
                0x0000000000002f56                _ZN13RobotProtocol2N610getRobotIdEv
 .text._ZN13RobotProtocol2N611getMasterIdEv
                0x0000000000002f5e        0x8 ./src/robotProtocol/N6.o
                0x0000000000002f5e                _ZN13RobotProtocol2N611getMasterIdEv
 .text._ZN13RobotProtocol2N611beepConfirmEv
                0x0000000000002f66       0x20 ./src/robotProtocol/N6.o
                0x0000000000002f66                _ZN13RobotProtocol2N611beepConfirmEv
 .text._ZN13RobotProtocol2N610initializeEPNS_14MessageManagerEii
                0x0000000000002f86       0x9c ./src/robotProtocol/N6.o
                0x0000000000002f86                _ZN13RobotProtocol2N610initializeEPNS_14MessageManagerEii
 .text._ZN13RobotProtocol2N6C2EPNS_14MessageManagerEi
                0x0000000000003022       0x40 ./src/robotProtocol/N6.o
                0x0000000000003022                _ZN13RobotProtocol2N6C2EPNS_14MessageManagerEi
                0x0000000000003022                _ZN13RobotProtocol2N6C1EPNS_14MessageManagerEi
 .text._ZN13RobotProtocol2N611getMidIndexEi
                0x0000000000003062       0x2c ./src/robotProtocol/N6.o
                0x0000000000003062                _ZN13RobotProtocol2N611getMidIndexEi
 .text._ZN13RobotProtocol2N610addCommandEiPNS_7CommandE
                0x000000000000308e       0x8c ./src/robotProtocol/N6.o
                0x000000000000308e                _ZN13RobotProtocol2N610addCommandEiPNS_7CommandE
 .text._ZN13RobotProtocol2N66updateEi
                0x000000000000311a       0xbe ./src/robotProtocol/N6.o
                0x000000000000311a                _ZN13RobotProtocol2N66updateEi
 .text._ZN13RobotProtocol2N617setLeftMotorSpeedEf
                0x00000000000031d8        0xa ./src/robotProtocol/N6.o
                0x00000000000031d8                _ZN13RobotProtocol2N617setLeftMotorSpeedEf
 .text._ZN13RobotProtocol2N618setRightMotorSpeedEf
                0x00000000000031e2        0xa ./src/robotProtocol/N6.o
                0x00000000000031e2                _ZN13RobotProtocol2N618setRightMotorSpeedEf
 .text._ZN13RobotProtocol2N615getLeftIRSensorEv
                0x00000000000031ec       0x12 ./src/robotProtocol/N6.o
                0x00000000000031ec                _ZN13RobotProtocol2N615getLeftIRSensorEv
 .text._ZN13RobotProtocol2N616getRightIRSensorEv
                0x00000000000031fe       0x12 ./src/robotProtocol/N6.o
                0x00000000000031fe                _ZN13RobotProtocol2N616getRightIRSensorEv
 .text._ZN13RobotProtocol2N69isOnWhiteEv
                0x0000000000003210       0x46 ./src/robotProtocol/N6.o
                0x0000000000003210                _ZN13RobotProtocol2N69isOnWhiteEv
 .text._ZN13RobotProtocol2N69isOnBlackEv
                0x0000000000003256       0x42 ./src/robotProtocol/N6.o
                0x0000000000003256                _ZN13RobotProtocol2N69isOnBlackEv
 .text._ZN13RobotProtocol2N613isLeftOnBlackEv
                0x0000000000003298       0x1e ./src/robotProtocol/N6.o
                0x0000000000003298                _ZN13RobotProtocol2N613isLeftOnBlackEv
 .text._ZN13RobotProtocol2N68isOnGrayEv
                0x00000000000032b6       0xf0 ./src/robotProtocol/N6.o
                0x00000000000032b6                _ZN13RobotProtocol2N68isOnGrayEv
 .text._ZN13RobotProtocol2N617getMessageManagerEv
                0x00000000000033a6        0x8 ./src/robotProtocol/N6.o
                0x00000000000033a6                _ZN13RobotProtocol2N617getMessageManagerEv
 .text._GLOBAL__I__ZN13RobotProtocol2N6C2EPNS_14MessageManagerEi
                0x00000000000033ae       0x1a ./src/robotProtocol/N6.o
 .text._ZN13RobotProtocol20SerialSenderReceiver14getNextMessageEPcRi
                0x00000000000033c8       0x78 ./src/robotProtocol/SerialSenderReceiver.o
                0x00000000000033c8                _ZN13RobotProtocol20SerialSenderReceiver14getNextMessageEPcRi
 .text._ZN13RobotProtocol20SerialSenderReceiver11sendMessageEPci
                0x0000000000003440       0x80 ./src/robotProtocol/SerialSenderReceiver.o
                0x0000000000003440                _ZN13RobotProtocol20SerialSenderReceiver11sendMessageEPci
 .text._ZN13RobotProtocol20SerialSenderReceiver17hasPendingMessageEv
                0x00000000000034c0      0x158 ./src/robotProtocol/SerialSenderReceiver.o
                0x00000000000034c0                _ZN13RobotProtocol20SerialSenderReceiver17hasPendingMessageEv
 .text._ZN13RobotProtocol20SerialSenderReceiverD2Ev
                0x0000000000003618       0x28 ./src/robotProtocol/SerialSenderReceiver.o
                0x0000000000003618                _ZN13RobotProtocol20SerialSenderReceiverD2Ev
                0x0000000000003618                _ZN13RobotProtocol20SerialSenderReceiverD1Ev
 .text._ZN13RobotProtocol20SerialSenderReceiverD0Ev
                0x0000000000003640       0x16 ./src/robotProtocol/SerialSenderReceiver.o
                0x0000000000003640                _ZN13RobotProtocol20SerialSenderReceiverD0Ev
 .text._ZN13RobotProtocol20SerialSenderReceiverC2Ev
                0x0000000000003656       0x4a ./src/robotProtocol/SerialSenderReceiver.o
                0x0000000000003656                _ZN13RobotProtocol20SerialSenderReceiverC1Ev
                0x0000000000003656                _ZN13RobotProtocol20SerialSenderReceiverC2Ev
 .text._GLOBAL__I__ZN13RobotProtocol20SerialSenderReceiverC2Ev
                0x00000000000036a0       0x1a ./src/robotProtocol/SerialSenderReceiver.o
 .text._ZThn2_N13RobotProtocol20SerialSenderReceiverD0Ev
                0x00000000000036ba        0x8 ./src/robotProtocol/SerialSenderReceiver.o
                0x00000000000036ba                _ZThn2_N13RobotProtocol20SerialSenderReceiverD0Ev
 .text._ZThn2_N13RobotProtocol20SerialSenderReceiverD1Ev
                0x00000000000036c2        0x8 ./src/robotProtocol/SerialSenderReceiver.o
                0x00000000000036c2                _ZThn2_N13RobotProtocol20SerialSenderReceiverD1Ev
 .text._ZThn2_N13RobotProtocol20SerialSenderReceiver17hasPendingMessageEv
                0x00000000000036ca        0x8 ./src/robotProtocol/SerialSenderReceiver.o
                0x00000000000036ca                _ZThn2_N13RobotProtocol20SerialSenderReceiver17hasPendingMessageEv
 .text._ZThn2_N13RobotProtocol20SerialSenderReceiver14getNextMessageEPcRi
                0x00000000000036d2        0x8 ./src/robotProtocol/SerialSenderReceiver.o
                0x00000000000036d2                _ZThn2_N13RobotProtocol20SerialSenderReceiver14getNextMessageEPcRi
 .text.Endpoint_ConfigureEndpoint_Prv
                0x00000000000036da       0x26 ./src/DuinoBotKids.v1.xx_0022/LUFA/Drivers/USB/LowLevel/Endpoint.o
                0x00000000000036da                Endpoint_ConfigureEndpoint_Prv
 .text.Endpoint_ClearStatusStage
                0x0000000000003700       0x42 ./src/DuinoBotKids.v1.xx_0022/LUFA/Drivers/USB/LowLevel/Endpoint.o
                0x0000000000003700                Endpoint_ClearStatusStage
 .text.Endpoint_WaitUntilReady
                0x0000000000003742       0x64 ./src/DuinoBotKids.v1.xx_0022/LUFA/Drivers/USB/LowLevel/Endpoint.o
                0x0000000000003742                Endpoint_WaitUntilReady
 .text.USB_ResetInterface
                0x00000000000037a6       0x9a ./src/DuinoBotKids.v1.xx_0022/LUFA/Drivers/USB/LowLevel/USBController.o
                0x00000000000037a6                USB_ResetInterface
 .text.USB_Init
                0x0000000000003840       0x16 ./src/DuinoBotKids.v1.xx_0022/LUFA/Drivers/USB/LowLevel/USBController.o
                0x0000000000003840                USB_Init
 .text.USB_INT_DisableAllInterrupts
                0x0000000000003856       0x10 ./src/DuinoBotKids.v1.xx_0022/LUFA/Drivers/USB/LowLevel/USBInterrupt.o
                0x0000000000003856                USB_INT_DisableAllInterrupts
 .text.USB_INT_ClearAllInterrupts
                0x0000000000003866        0xa ./src/DuinoBotKids.v1.xx_0022/LUFA/Drivers/USB/LowLevel/USBInterrupt.o
                0x0000000000003866                USB_INT_ClearAllInterrupts
 .text.__vector_10
                0x0000000000003870      0x192 ./src/DuinoBotKids.v1.xx_0022/LUFA/Drivers/USB/LowLevel/USBInterrupt.o
                0x0000000000003870                __vector_10
 .text.USB_Device_ProcessControlRequest
                0x0000000000003a02      0x250 ./src/DuinoBotKids.v1.xx_0022/LUFA/Drivers/USB/HighLevel/DeviceStandardReq.o
                0x0000000000003a02                USB_Device_ProcessControlRequest
 .text.Endpoint_Write_Control_Stream_LE
                0x0000000000003c52       0xb8 ./src/DuinoBotKids.v1.xx_0022/LUFA/Drivers/USB/HighLevel/EndpointStream.o
                0x0000000000003c52                Endpoint_Write_Control_Stream_LE
 .text.Endpoint_Write_Control_PStream_LE
                0x0000000000003d0a       0xbc ./src/DuinoBotKids.v1.xx_0022/LUFA/Drivers/USB/HighLevel/EndpointStream.o
                0x0000000000003d0a                Endpoint_Write_Control_PStream_LE
 .text.Endpoint_Read_Control_Stream_LE
                0x0000000000003dc6       0x80 ./src/DuinoBotKids.v1.xx_0022/LUFA/Drivers/USB/HighLevel/EndpointStream.o
                0x0000000000003dc6                Endpoint_Read_Control_Stream_LE
 .text.USB_Event_Stub
                0x0000000000003e46        0x2 ./src/DuinoBotKids.v1.xx_0022/LUFA/Drivers/USB/HighLevel/Events.o
                0x0000000000003e46                EVENT_USB_Device_WakeUp
                0x0000000000003e46                USB_Event_Stub
                0x0000000000003e46                EVENT_USB_Device_Suspend
                0x0000000000003e46                EVENT_USB_Device_StartOfFrame
                0x0000000000003e46                EVENT_USB_Device_Reset
 .text.USB_USBTask
                0x0000000000003e48       0x28 ./src/DuinoBotKids.v1.xx_0022/LUFA/Drivers/USB/HighLevel/USBTask.o
                0x0000000000003e48                USB_USBTask
 .text.CDC_Device_Event_Stub
                0x0000000000003e70        0x2 ./src/DuinoBotKids.v1.xx_0022/LUFA/Drivers/USB/Class/Device/CDC.o
                0x0000000000003e70                EVENT_CDC_Device_LineEncodingChanged
                0x0000000000003e70                EVENT_CDC_Device_BreakSent
                0x0000000000003e70                CDC_Device_Event_Stub
 .text.CDC_Device_ProcessControlRequest
                0x0000000000003e72       0xe8 ./src/DuinoBotKids.v1.xx_0022/LUFA/Drivers/USB/Class/Device/CDC.o
                0x0000000000003e72                CDC_Device_ProcessControlRequest
 .text.CDC_Device_ConfigureEndpoints
                0x0000000000003f5a       0x98 ./src/DuinoBotKids.v1.xx_0022/LUFA/Drivers/USB/Class/Device/CDC.o
                0x0000000000003f5a                CDC_Device_ConfigureEndpoints
 .text.CDC_Device_SendByte
                0x0000000000003ff2       0x5c ./src/DuinoBotKids.v1.xx_0022/LUFA/Drivers/USB/Class/Device/CDC.o
                0x0000000000003ff2                CDC_Device_SendByte
 .text.CDC_Device_Flush
                0x000000000000404e       0x6a ./src/DuinoBotKids.v1.xx_0022/LUFA/Drivers/USB/Class/Device/CDC.o
                0x000000000000404e                CDC_Device_Flush
 .text.CDC_Device_USBTask
                0x00000000000040b8       0x22 ./src/DuinoBotKids.v1.xx_0022/LUFA/Drivers/USB/Class/Device/CDC.o
                0x00000000000040b8                CDC_Device_USBTask
 .text.CDC_Device_ReceiveByte
                0x00000000000040da       0x76 ./src/DuinoBotKids.v1.xx_0022/LUFA/Drivers/USB/Class/Device/CDC.o
                0x00000000000040da                CDC_Device_ReceiveByte
 .text._ZN7DCMotorC1Eiiib
                0x0000000000004150       0x72 ./src/DuinoBotKids.v1.xx_0022/DCMotor/DCMotor.o
                0x0000000000004150                _ZN7DCMotorC1Eiiib
 .text._ZN7DCMotor8setSpeedEf
                0x00000000000041c2      0x17a ./src/DuinoBotKids.v1.xx_0022/DCMotor/DCMotor.o
                0x00000000000041c2                _ZN7DCMotor8setSpeedEf
 .text._ZN7DCMotor12setClockwiseEb
                0x000000000000433c       0x18 ./src/DuinoBotKids.v1.xx_0022/DCMotor/DCMotor.o
                0x000000000000433c                _ZN7DCMotor12setClockwiseEb
 .text._GLOBAL__I__ZN7DCMotor8setSpeedEf
                0x0000000000004354       0x48 ./src/DuinoBotKids.v1.xx_0022/DCMotor/DCMotor.o
 .text._ZN9CDCSerial5writeEPKc
                0x000000000000439c        0x8 ./src/DuinoBotKids.v1.xx_0022/CDCSerial.o
                0x000000000000439c                _ZN9CDCSerial5writeEPKc
 .text._ZN9CDCSerial5writeEPKhj
                0x00000000000043a4        0x8 ./src/DuinoBotKids.v1.xx_0022/CDCSerial.o
                0x00000000000043a4                _ZN9CDCSerial5writeEPKhj
 .text._ZN9CDCSerial5writeEh
                0x00000000000043ac       0x22 ./src/DuinoBotKids.v1.xx_0022/CDCSerial.o
                0x00000000000043ac                _ZN9CDCSerial5writeEh
 .text._Z10store_charhP11ring_buffer
                0x00000000000043ce       0x46 ./src/DuinoBotKids.v1.xx_0022/CDCSerial.o
                0x00000000000043ce                _Z10store_charhP11ring_buffer
 .text._ZN9CDCSerial5storeEc
                0x0000000000004414        0xc ./src/DuinoBotKids.v1.xx_0022/CDCSerial.o
                0x0000000000004414                _ZN9CDCSerial5storeEc
 .text._ZN9CDCSerial5beginEl
                0x0000000000004420        0x2 ./src/DuinoBotKids.v1.xx_0022/CDCSerial.o
                0x0000000000004420                _ZN9CDCSerial5beginEl
 .text._GLOBAL__I_rx_buffer_cdc
                0x0000000000004422       0x1a ./src/DuinoBotKids.v1.xx_0022/CDCSerial.o
 .text.__cxa_pure_virtual
                0x000000000000443c        0x2 ./src/DuinoBotKids.v1.xx_0022/CPPLib.o
                0x000000000000443c                __cxa_pure_virtual
 .text._ZdlPv   0x000000000000443e        0xa ./src/DuinoBotKids.v1.xx_0022/CPPLib.o
                0x000000000000443e                _ZdlPv
 .text.CALLBACK_USB_GetDescriptor
                0x0000000000004448       0x48 ./src/DuinoBotKids.v1.xx_0022/Descriptors.o
                0x0000000000004448                CALLBACK_USB_GetDescriptor
 .text._ZN14HardwareSerial9availableEv
                0x0000000000004490       0x26 ./src/DuinoBotKids.v1.xx_0022/HardwareSerial.o
                0x0000000000004490                _ZN14HardwareSerial9availableEv
 .text._ZN14HardwareSerial4peekEv
                0x00000000000044b6       0x34 ./src/DuinoBotKids.v1.xx_0022/HardwareSerial.o
                0x00000000000044b6                _ZN14HardwareSerial4peekEv
 .text._ZN14HardwareSerial4readEv
                0x00000000000044ea       0x44 ./src/DuinoBotKids.v1.xx_0022/HardwareSerial.o
                0x00000000000044ea                _ZN14HardwareSerial4readEv
 .text._ZN14HardwareSerial5flushEv
                0x000000000000452e       0x22 ./src/DuinoBotKids.v1.xx_0022/HardwareSerial.o
                0x000000000000452e                _ZN14HardwareSerial5flushEv
 .text._ZN14HardwareSerial5writeEh
                0x0000000000004550       0x26 ./src/DuinoBotKids.v1.xx_0022/HardwareSerial.o
                0x0000000000004550                _ZN14HardwareSerial5writeEh
 .text.__vector_25
                0x0000000000004576       0x50 ./src/DuinoBotKids.v1.xx_0022/HardwareSerial.o
                0x0000000000004576                __vector_25
 .text._ZN14HardwareSerial5beginEl
                0x00000000000045c6       0xb2 ./src/DuinoBotKids.v1.xx_0022/HardwareSerial.o
                0x00000000000045c6                _ZN14HardwareSerial5beginEl
 .text._GLOBAL__I_rx_buffer1
                0x0000000000004678       0x74 ./src/DuinoBotKids.v1.xx_0022/HardwareSerial.o
 .text._ZN5Print5writeEPKc
                0x00000000000046ec       0x32 ./src/DuinoBotKids.v1.xx_0022/Print.o
                0x00000000000046ec                _ZN5Print5writeEPKc
 .text._ZN5Print5writeEPKhj
                0x000000000000471e       0x3e ./src/DuinoBotKids.v1.xx_0022/Print.o
                0x000000000000471e                _ZN5Print5writeEPKhj
 .text._Z4tonehjm
                0x000000000000475c      0x550 ./src/DuinoBotKids.v1.xx_0022/Tone.o
                0x000000000000475c                _Z4tonehjm
 .text._Z12disableTimerh
                0x0000000000004cac       0x66 ./src/DuinoBotKids.v1.xx_0022/Tone.o
                0x0000000000004cac                _Z12disableTimerh
 .text.__vector_21
                0x0000000000004d12       0xca ./src/DuinoBotKids.v1.xx_0022/Tone.o
                0x0000000000004d12                __vector_21
 .text.__vector_17
                0x0000000000004ddc       0xca ./src/DuinoBotKids.v1.xx_0022/Tone.o
                0x0000000000004ddc                __vector_17
 .text.CDC_Send
                0x0000000000004ea6       0x2a ./src/DuinoBotKids.v1.xx_0022/VirtualSerial.o
                0x0000000000004ea6                CDC_Send
 .text.__vector_12
                0x0000000000004ed0       0x7a ./src/DuinoBotKids.v1.xx_0022/VirtualSerial.o
                0x0000000000004ed0                __vector_12
 .text.EVENT_USB_Device_Connect
                0x0000000000004f4a        0x2 ./src/DuinoBotKids.v1.xx_0022/VirtualSerial.o
                0x0000000000004f4a                EVENT_USB_Device_Connect
 .text.EVENT_USB_Device_Disconnect
                0x0000000000004f4c        0x2 ./src/DuinoBotKids.v1.xx_0022/VirtualSerial.o
                0x0000000000004f4c                EVENT_USB_Device_Disconnect
 .text.EVENT_USB_Device_ConfigurationChanged
                0x0000000000004f4e        0xa ./src/DuinoBotKids.v1.xx_0022/VirtualSerial.o
                0x0000000000004f4e                EVENT_USB_Device_ConfigurationChanged
 .text.EVENT_USB_Device_UnhandledControlRequest
                0x0000000000004f58        0xa ./src/DuinoBotKids.v1.xx_0022/VirtualSerial.o
                0x0000000000004f58                EVENT_USB_Device_UnhandledControlRequest
 .text.EVENT_CDC_Device_ControLineStateChanged
                0x0000000000004f62       0x86 ./src/DuinoBotKids.v1.xx_0022/VirtualSerial.o
                0x0000000000004f62                EVENT_CDC_Device_ControLineStateChanged
 .text.__vector_1
                0x0000000000004fe8       0x5a ./src/DuinoBotKids.v1.xx_0022/WInterrupts.o
                0x0000000000004fe8                __vector_1
 .text.__vector_2
                0x0000000000005042       0x5a ./src/DuinoBotKids.v1.xx_0022/WInterrupts.o
                0x0000000000005042                __vector_2
 .text.__vector_3
                0x000000000000509c       0x5a ./src/DuinoBotKids.v1.xx_0022/WInterrupts.o
                0x000000000000509c                __vector_3
 .text.__vector_4
                0x00000000000050f6       0x5a ./src/DuinoBotKids.v1.xx_0022/WInterrupts.o
                0x00000000000050f6                __vector_4
 .text._GLOBAL__I__ZN6StringC2EPKc
                0x0000000000005150       0x1a ./src/DuinoBotKids.v1.xx_0022/WString.o
 .text.__vector_23
                0x000000000000516a       0x90 ./src/DuinoBotKids.v1.xx_0022/wiring.o
                0x000000000000516a                __vector_23
 .text.micros   0x00000000000051fa       0x4c ./src/DuinoBotKids.v1.xx_0022/wiring.o
                0x00000000000051fa                micros
 .text.delay    0x0000000000005246       0x4e ./src/DuinoBotKids.v1.xx_0022/wiring.o
                0x0000000000005246                delay
 .text.init     0x0000000000005294      0x130 ./src/DuinoBotKids.v1.xx_0022/wiring.o
                0x0000000000005294                init
 .text.analogRead
                0x00000000000053c4       0x72 ./src/DuinoBotKids.v1.xx_0022/wiring_analog.o
                0x00000000000053c4                analogRead
 .text.analogWrite
                0x0000000000005436      0x14a ./src/DuinoBotKids.v1.xx_0022/wiring_analog.o
                0x0000000000005436                analogWrite
 .text.turnOffPWM
                0x0000000000005580       0xae ./src/DuinoBotKids.v1.xx_0022/wiring_digital.o
 .text.pinMode  0x000000000000562e       0x48 ./src/DuinoBotKids.v1.xx_0022/wiring_digital.o
                0x000000000000562e                pinMode
 .text.digitalWrite
                0x0000000000005676       0x74 ./src/DuinoBotKids.v1.xx_0022/wiring_digital.o
                0x0000000000005676                digitalWrite
 .text._Z12setupProgramPN13RobotProtocol14MessageManagerE
                0x00000000000056ea       0xc4 ./src/main.o
                0x00000000000056ea                _Z12setupProgramPN13RobotProtocol14MessageManagerE
 .text.main     0x00000000000057ae       0xf6 ./src/main.o
                0x00000000000057ae                main
 .text._GLOBAL__I__Z12setupProgramPN13RobotProtocol14MessageManagerE
                0x00000000000058a4       0x1a ./src/main.o
 .text.libgcc   0x00000000000058be       0x3e /usr/lib/gcc/avr/4.5.3/avr5/libgcc.a(_mulsi3.o)
                0x00000000000058be                __mulsi3
 .text.libgcc   0x00000000000058fc       0x26 /usr/lib/gcc/avr/4.5.3/avr5/libgcc.a(_divmodhi4.o)
                0x00000000000058fc                __divmodhi4
                0x00000000000058fc                _div
 .text.libgcc   0x0000000000005922       0x44 /usr/lib/gcc/avr/4.5.3/avr5/libgcc.a(_udivmodsi4.o)
                0x0000000000005922                __udivmodsi4
 .text.libgcc   0x0000000000005966       0x28 /usr/lib/gcc/avr/4.5.3/avr5/libgcc.a(_udivmodhi4.o)
                0x0000000000005966                __udivmodhi4
 .text.libgcc   0x000000000000598e       0x38 /usr/lib/gcc/avr/4.5.3/avr5/libgcc.a(_prologue.o)
                0x000000000000598e                __prologue_saves__
 .text.libgcc   0x00000000000059c6       0x36 /usr/lib/gcc/avr/4.5.3/avr5/libgcc.a(_epilogue.o)
                0x00000000000059c6                __epilogue_restores__
 .text.libgcc   0x00000000000059fc        0xc /usr/lib/gcc/avr/4.5.3/avr5/libgcc.a(_tablejump.o)
                0x00000000000059fc                __tablejump2__
                0x0000000000005a00                __tablejump__
 .text.avr-libc
                0x0000000000005a08      0x266 /usr/lib/gcc/avr/4.5.3/../../../avr/lib/avr5/libc.a(malloc.o)
                0x0000000000005a08                malloc
                0x0000000000005b3c                free
 .text.avr-libc
                0x0000000000005c6e      0x25a /usr/lib/gcc/avr/4.5.3/../../../avr/lib/avr5/libc.a(strtol.o)
                0x0000000000005c6e                strtol
 .text.avr-libc
                0x0000000000005ec8       0x10 /usr/lib/gcc/avr/4.5.3/../../../avr/lib/avr5/libc.a(isspace.o)
                0x0000000000005ec8                isspace
 .text.avr-libc
                0x0000000000005ed8       0x2a /usr/lib/gcc/avr/4.5.3/../../../avr/lib/avr5/libc.a(printf.o)
                0x0000000000005ed8                printf
 .text.avr-libc
                0x0000000000005f02       0x46 /usr/lib/gcc/avr/4.5.3/../../../avr/lib/avr5/libc.a(sprintf.o)
                0x0000000000005f02                sprintf
 .text.avr-libc
                0x0000000000005f48      0x3ce /usr/lib/gcc/avr/4.5.3/../../../avr/lib/avr5/libc.a(vfprintf_std.o)
                0x0000000000005f48                vfprintf
 .text.avr-libc
                0x0000000000006316        0x6 /usr/lib/gcc/avr/4.5.3/../../../avr/lib/avr5/libc.a(cty_isfalse.o)
                0x0000000000006316                __ctype_isfalse
                0x000000000000631a                __ctype_istrue
 .text.avr-libc
                0x000000000000631c       0x16 /usr/lib/gcc/avr/4.5.3/../../../avr/lib/avr5/libc.a(strnlen_P.o)
                0x000000000000631c                strnlen_P
 .text.avr-libc
                0x0000000000006332       0x16 /usr/lib/gcc/avr/4.5.3/../../../avr/lib/avr5/libc.a(strnlen.o)
                0x0000000000006332                strnlen
 .text.avr-libc
                0x0000000000006348       0x58 /usr/lib/gcc/avr/4.5.3/../../../avr/lib/avr5/libc.a(fputc.o)
                0x0000000000006348                fputc
 .text.avr-libc
                0x00000000000063a0       0xbc /usr/lib/gcc/avr/4.5.3/../../../avr/lib/avr5/libc.a(ultoa_invert.o)
                0x00000000000063a0                __ultoa_invert
                0x000000000000645c                . = ALIGN (0x2)
 *(.fini9)
 .fini9         0x000000000000645c        0x0 /usr/lib/gcc/avr/4.5.3/avr5/libgcc.a(_exit.o)
                0x000000000000645c                exit
                0x000000000000645c                _exit
 *(.fini9)
 *(.fini8)
 *(.fini8)
 *(.fini7)
 *(.fini7)
 *(.fini6)
 .fini6         0x000000000000645c       0x16 /usr/lib/gcc/avr/4.5.3/avr5/libgcc.a(_dtors.o)
                0x000000000000645c                __do_global_dtors
 *(.fini6)
 *(.fini5)
 *(.fini5)
 *(.fini4)
 *(.fini4)
 *(.fini3)
 *(.fini3)
 *(.fini2)
 *(.fini2)
 *(.fini1)
 *(.fini1)
 *(.fini0)
 .fini0         0x0000000000006472        0x4 /usr/lib/gcc/avr/4.5.3/avr5/libgcc.a(_exit.o)
 *(.fini0)
                0x0000000000006476                _etext = .

.data           0x0000000000800100      0x400 load address 0x0000000000006476
                0x0000000000800100                PROVIDE (__data_start, .)
 *(.data)
 .data          0x0000000000800100        0x5 ./src/robotProtocol/messages/CommandAcceptedMessage.o
 .data          0x0000000000800105        0x9 ./src/robotProtocol/messages/CommandErrorMessage.o
 .data          0x000000000080010e        0x5 ./src/robotProtocol/messages/KeepAliveMessage.o
 .data          0x0000000000800113        0xd ./src/robotProtocol/messages/ReadIRSensorsReplyMessage.o
 .data          0x0000000000800120        0x5 ./src/robotProtocol/messages/ReadUSSensorReplyMessage.o
 .data          0x0000000000800125       0x15 ./src/robotProtocol/messages/RobotStatusMessage.o
 .data          0x000000000080013a        0x9 ./src/robotProtocol/messages/SetMotorSpeedMessage.o
 .data          0x0000000000800143       0x22 ./src/robotProtocol/Message.o
 .data          0x0000000000800165       0x68 ./src/robotProtocol/MessageManager.o
 .data          0x00000000008001cd       0x60 ./src/robotProtocol/N6.o
 .data          0x000000000080022d        0x8 /usr/lib/gcc/avr/4.5.3/avr5/libgcc.a(_thenan_sf.o)
                0x000000000080022d                __thenan_sf
 .data          0x0000000000800235      0x100 /usr/lib/gcc/avr/4.5.3/avr5/libgcc.a(_clz.o)
                0x0000000000800235                __clz_tab
 .data          0x0000000000800335        0x6 /usr/lib/gcc/avr/4.5.3/../../../avr/lib/avr5/libc.a(malloc.o)
                0x0000000000800335                __malloc_margin
                0x0000000000800337                __malloc_heap_start
                0x0000000000800339                __malloc_heap_end
 *(.data*)
 .data._ZN13RobotProtocol7Message18MESSAGE_HEAD_VALUEE
                0x000000000080033b        0x2 ./src/robotProtocol/Message.o
                0x000000000080033b                _ZN13RobotProtocol7Message18MESSAGE_HEAD_VALUEE
 .data._ZL9tone_pins
                0x000000000080033d        0x1 ./src/DuinoBotKids.v1.xx_0022/Tone.o
 .data.VirtualSerial_CDC_Interface
                0x000000000080033e       0x16 ./src/DuinoBotKids.v1.xx_0022/VirtualSerial.o
                0x000000000080033e                VirtualSerial_CDC_Interface
 .data.DTR_old  0x0000000000800354        0x2 ./src/DuinoBotKids.v1.xx_0022/VirtualSerial.o
                0x0000000000800354                DTR_old
 .data.DTR      0x0000000000800356        0x2 ./src/DuinoBotKids.v1.xx_0022/VirtualSerial.o
                0x0000000000800356                DTR
 .data.analog_reference
                0x0000000000800358        0x1 ./src/DuinoBotKids.v1.xx_0022/wiring_analog.o
                0x0000000000800358                analog_reference
 *(.rodata)
 *(.rodata*)
 .rodata._ZTVN13RobotProtocol22CommandAcceptedMessageE
                0x0000000000800359        0xe ./src/robotProtocol/messages/CommandAcceptedMessage.o
                0x0000000000800359                _ZTVN13RobotProtocol22CommandAcceptedMessageE
 .rodata._ZTVN13RobotProtocol19CommandErrorMessageE
                0x0000000000800367        0xe ./src/robotProtocol/messages/CommandErrorMessage.o
                0x0000000000800367                _ZTVN13RobotProtocol19CommandErrorMessageE
 .rodata._ZTVN13RobotProtocol36CommunicationStartAcknowledgeMessageE
                0x0000000000800375        0xe ./src/robotProtocol/messages/CommunicationStartAcknowledgeMessage.o
                0x0000000000800375                _ZTVN13RobotProtocol36CommunicationStartAcknowledgeMessageE
 .rodata._ZTVN13RobotProtocol25CommunicationStartMessageE
                0x0000000000800383        0xe ./src/robotProtocol/messages/CommunicationStartMessage.o
                0x0000000000800383                _ZTVN13RobotProtocol25CommunicationStartMessageE
 .rodata._ZTVN13RobotProtocol24CommunicationStopMessageE
                0x0000000000800391        0xe ./src/robotProtocol/messages/CommunicationStopMessage.o
                0x0000000000800391                _ZTVN13RobotProtocol24CommunicationStopMessageE
 .rodata._ZTVN13RobotProtocol25DestinationReachedMessageE
                0x000000000080039f        0xe ./src/robotProtocol/messages/DestinationReachedMessage.o
                0x000000000080039f                _ZTVN13RobotProtocol25DestinationReachedMessageE
 .rodata._ZTVN13RobotProtocol17FollowLineMessageE
                0x00000000008003ad        0xe ./src/robotProtocol/messages/FollowLineMessage.o
                0x00000000008003ad                _ZTVN13RobotProtocol17FollowLineMessageE
 .rodata._ZTVN13RobotProtocol16KeepAliveMessageE
                0x00000000008003bb        0xe ./src/robotProtocol/messages/KeepAliveMessage.o
                0x00000000008003bb                _ZTVN13RobotProtocol16KeepAliveMessageE
 .rodata._ZTVN13RobotProtocol20ReadIRSensorsMessageE
                0x00000000008003c9        0xe ./src/robotProtocol/messages/ReadIRSensorsMessage.o
                0x00000000008003c9                _ZTVN13RobotProtocol20ReadIRSensorsMessageE
 .rodata._ZTVN13RobotProtocol25ReadIRSensorsReplyMessageE
                0x00000000008003d7        0xe ./src/robotProtocol/messages/ReadIRSensorsReplyMessage.o
                0x00000000008003d7                _ZTVN13RobotProtocol25ReadIRSensorsReplyMessageE
 .rodata._ZTVN13RobotProtocol19ReadUSSensorMessageE
                0x00000000008003e5        0xe ./src/robotProtocol/messages/ReadUSSensorMessage.o
                0x00000000008003e5                _ZTVN13RobotProtocol19ReadUSSensorMessageE
 .rodata._ZTVN13RobotProtocol24ReadUSSensorReplyMessageE
                0x00000000008003f3        0xe ./src/robotProtocol/messages/ReadUSSensorReplyMessage.o
                0x00000000008003f3                _ZTVN13RobotProtocol24ReadUSSensorReplyMessageE
 .rodata._ZTVN13RobotProtocol16RobotLostMessageE
                0x0000000000800401        0xe ./src/robotProtocol/messages/RobotLostMessage.o
                0x0000000000800401                _ZTVN13RobotProtocol16RobotLostMessageE
 .rodata._ZTVN13RobotProtocol18RobotStatusMessageE
                0x000000000080040f        0xe ./src/robotProtocol/messages/RobotStatusMessage.o
                0x000000000080040f                _ZTVN13RobotProtocol18RobotStatusMessageE
 .rodata._ZTVN13RobotProtocol20SetMotorSpeedMessageE
                0x000000000080041d        0xe ./src/robotProtocol/messages/SetMotorSpeedMessage.o
                0x000000000080041d                _ZTVN13RobotProtocol20SetMotorSpeedMessageE
 .rodata._ZTVN13RobotProtocol17TurnAroundMessageE
                0x000000000080042b        0xe ./src/robotProtocol/messages/TurnAroundMessage.o
                0x000000000080042b                _ZTVN13RobotProtocol17TurnAroundMessageE
 .rodata._ZTVN13RobotProtocol15TurnLeftMessageE
                0x0000000000800439        0xe ./src/robotProtocol/messages/TurnLeftMessage.o
                0x0000000000800439                _ZTVN13RobotProtocol15TurnLeftMessageE
 .rodata._ZTVN13RobotProtocol16TurnRightMessageE
                0x0000000000800447        0xe ./src/robotProtocol/messages/TurnRightMessage.o
                0x0000000000800447                _ZTVN13RobotProtocol16TurnRightMessageE
 .rodata._ZTVN13RobotProtocol17FollowLineCommandE
                0x0000000000800455       0x10 ./src/robotProtocol/commands/FollowLineCommand.o
                0x0000000000800455                _ZTVN13RobotProtocol17FollowLineCommandE
 .rodata._ZTVN13RobotProtocol20SetMotorSpeedCommandE
                0x0000000000800465       0x10 ./src/robotProtocol/commands/SetMotorSpeedCommand.o
                0x0000000000800465                _ZTVN13RobotProtocol20SetMotorSpeedCommandE
 .rodata._ZTVN13RobotProtocol11TurnCommandE
                0x0000000000800475       0x10 ./src/robotProtocol/commands/TurnCommand.o
                0x0000000000800475                _ZTVN13RobotProtocol11TurnCommandE
 .rodata._ZTVN13RobotProtocol7CommandE
                0x0000000000800485       0x10 ./src/robotProtocol/Command.o
                0x0000000000800485                _ZTVN13RobotProtocol7CommandE
 .rodata._ZTVN13RobotProtocol7MessageE
                0x0000000000800495        0xe ./src/robotProtocol/Message.o
                0x0000000000800495                _ZTVN13RobotProtocol7MessageE
 .rodata._ZTVN13RobotProtocol14MessageManagerE
                0x00000000008004a3        0x8 ./src/robotProtocol/MessageManager.o
                0x00000000008004a3                _ZTVN13RobotProtocol14MessageManagerE
 .rodata._ZTVN13RobotProtocol15MessageReceiverE
                0x00000000008004ab        0xc ./src/robotProtocol/MessageReceiver.o
                0x00000000008004ab                _ZTVN13RobotProtocol15MessageReceiverE
 .rodata._ZTVN13RobotProtocol13MessageSenderE
                0x00000000008004b7        0xa ./src/robotProtocol/MessageSender.o
                0x00000000008004b7                _ZTVN13RobotProtocol13MessageSenderE
 .rodata._ZTVN13RobotProtocol2N6E
                0x00000000008004c1        0x8 ./src/robotProtocol/N6.o
                0x00000000008004c1                _ZTVN13RobotProtocol2N6E
 .rodata._ZTVN13RobotProtocol20SerialSenderReceiverE
                0x00000000008004c9       0x1a ./src/robotProtocol/SerialSenderReceiver.o
                0x00000000008004c9                _ZTVN13RobotProtocol20SerialSenderReceiverE
 .rodata._ZTV9CDCSerial
                0x00000000008004e3        0xa ./src/DuinoBotKids.v1.xx_0022/CDCSerial.o
                0x00000000008004e3                _ZTV9CDCSerial
 .rodata._ZTV14HardwareSerial
                0x00000000008004ed       0x12 ./src/DuinoBotKids.v1.xx_0022/HardwareSerial.o
                0x00000000008004ed                _ZTV14HardwareSerial
 *(.gnu.linkonce.d*)
                0x0000000000800500                . = ALIGN (0x2)
 *fill*         0x00000000008004ff        0x1 00
                0x0000000000800500                _edata = .
                0x0000000000800500                PROVIDE (__data_end, .)

.bss            0x0000000000800500      0x2c7
                0x0000000000800500                PROVIDE (__bss_start, .)
 *(.bss)
 *(.bss*)
 .bss._ZN13RobotProtocol22CommandAcceptedMessage13staticMessageE
                0x0000000000800500        0xe ./src/robotProtocol/messages/CommandAcceptedMessage.o
                0x0000000000800500                _ZN13RobotProtocol22CommandAcceptedMessage13staticMessageE
 .bss._ZN13RobotProtocol19CommandErrorMessage13staticMessageE
                0x000000000080050e       0x10 ./src/robotProtocol/messages/CommandErrorMessage.o
                0x000000000080050e                _ZN13RobotProtocol19CommandErrorMessage13staticMessageE
 .bss._ZN13RobotProtocol36CommunicationStartAcknowledgeMessage13staticMessageE
                0x000000000080051e        0xc ./src/robotProtocol/messages/CommunicationStartAcknowledgeMessage.o
                0x000000000080051e                _ZN13RobotProtocol36CommunicationStartAcknowledgeMessage13staticMessageE
 .bss._ZN13RobotProtocol25CommunicationStartMessage13staticMessageE
                0x000000000080052a        0xc ./src/robotProtocol/messages/CommunicationStartMessage.o
                0x000000000080052a                _ZN13RobotProtocol25CommunicationStartMessage13staticMessageE
 .bss._ZN13RobotProtocol24CommunicationStopMessage13staticMessageE
                0x0000000000800536        0xc ./src/robotProtocol/messages/CommunicationStopMessage.o
                0x0000000000800536                _ZN13RobotProtocol24CommunicationStopMessage13staticMessageE
 .bss._ZN13RobotProtocol25DestinationReachedMessage13staticMessageE
                0x0000000000800542        0xc ./src/robotProtocol/messages/DestinationReachedMessage.o
                0x0000000000800542                _ZN13RobotProtocol25DestinationReachedMessage13staticMessageE
 .bss._ZN13RobotProtocol17FollowLineMessage13staticMessageE
                0x000000000080054e        0xc ./src/robotProtocol/messages/FollowLineMessage.o
                0x000000000080054e                _ZN13RobotProtocol17FollowLineMessage13staticMessageE
 .bss._ZN13RobotProtocol16KeepAliveMessage13staticMessageE
                0x000000000080055a        0xe ./src/robotProtocol/messages/KeepAliveMessage.o
                0x000000000080055a                _ZN13RobotProtocol16KeepAliveMessage13staticMessageE
 .bss._ZN13RobotProtocol20ReadIRSensorsMessage13staticMessageE
                0x0000000000800568        0xc ./src/robotProtocol/messages/ReadIRSensorsMessage.o
                0x0000000000800568                _ZN13RobotProtocol20ReadIRSensorsMessage13staticMessageE
 .bss._ZN13RobotProtocol25ReadIRSensorsReplyMessage13staticMessageE
                0x0000000000800574       0x12 ./src/robotProtocol/messages/ReadIRSensorsReplyMessage.o
                0x0000000000800574                _ZN13RobotProtocol25ReadIRSensorsReplyMessage13staticMessageE
 .bss._ZN13RobotProtocol19ReadUSSensorMessage13staticMessageE
                0x0000000000800586        0xc ./src/robotProtocol/messages/ReadUSSensorMessage.o
                0x0000000000800586                _ZN13RobotProtocol19ReadUSSensorMessage13staticMessageE
 .bss._ZN13RobotProtocol24ReadUSSensorReplyMessage13staticMessageE
                0x0000000000800592        0xe ./src/robotProtocol/messages/ReadUSSensorReplyMessage.o
                0x0000000000800592                _ZN13RobotProtocol24ReadUSSensorReplyMessage13staticMessageE
 .bss._ZN13RobotProtocol20ReusableMessageProxy25destinationReachedMessageE
                0x00000000008005a0        0xc ./src/robotProtocol/messages/ReusableMessageProxy.o
                0x00000000008005a0                _ZN13RobotProtocol20ReusableMessageProxy25destinationReachedMessageE
 .bss._ZN13RobotProtocol20ReusableMessageProxy16robotLostMessageE
                0x00000000008005ac        0xc ./src/robotProtocol/messages/ReusableMessageProxy.o
                0x00000000008005ac                _ZN13RobotProtocol20ReusableMessageProxy16robotLostMessageE
 .bss._ZN13RobotProtocol16RobotLostMessage13staticMessageE
                0x00000000008005b8        0xc ./src/robotProtocol/messages/RobotLostMessage.o
                0x00000000008005b8                _ZN13RobotProtocol16RobotLostMessage13staticMessageE
 .bss._ZN13RobotProtocol18RobotStatusMessage13staticMessageE
                0x00000000008005c4       0x16 ./src/robotProtocol/messages/RobotStatusMessage.o
                0x00000000008005c4                _ZN13RobotProtocol18RobotStatusMessage13staticMessageE
 .bss._ZN13RobotProtocol20SetMotorSpeedMessage13staticMessageE
                0x00000000008005da       0x10 ./src/robotProtocol/messages/SetMotorSpeedMessage.o
                0x00000000008005da                _ZN13RobotProtocol20SetMotorSpeedMessage13staticMessageE
 .bss._ZN13RobotProtocol17TurnAroundMessage13staticMessageE
                0x00000000008005ea        0xc ./src/robotProtocol/messages/TurnAroundMessage.o
                0x00000000008005ea                _ZN13RobotProtocol17TurnAroundMessage13staticMessageE
 .bss._ZN13RobotProtocol15TurnLeftMessage13staticMessageE
                0x00000000008005f6        0xc ./src/robotProtocol/messages/TurnLeftMessage.o
                0x00000000008005f6                _ZN13RobotProtocol15TurnLeftMessage13staticMessageE
 .bss._ZN13RobotProtocol16TurnRightMessage13staticMessageE
                0x0000000000800602        0xc ./src/robotProtocol/messages/TurnRightMessage.o
                0x0000000000800602                _ZN13RobotProtocol16TurnRightMessage13staticMessageE
 .bss._ZL13dcMotMinSpeed
                0x000000000080060e        0x4 ./src/robotProtocol/commands/FollowLineCommand.o
 .bss._ZL13dcMotMinSpeed
                0x0000000000800612        0x4 ./src/robotProtocol/commands/ReadIRSensorsCommand.o
 .bss._ZL13dcMotMinSpeed
                0x0000000000800616        0x4 ./src/robotProtocol/commands/ReadUSSensorCommand.o
 .bss._ZL13dcMotMinSpeed
                0x000000000080061a        0x4 ./src/robotProtocol/commands/SendKeepAliveCommand.o
 .bss._ZL13dcMotMinSpeed
                0x000000000080061e        0x4 ./src/robotProtocol/commands/SetMotorSpeedCommand.o
 .bss._ZL13dcMotMinSpeed
                0x0000000000800622        0x4 ./src/robotProtocol/commands/TurnCommand.o
 .bss._ZL13dcMotMinSpeed
                0x0000000000800626        0x4 ./src/robotProtocol/Command.o
 .bss._ZL13dcMotMinSpeed
                0x000000000080062a        0x4 ./src/robotProtocol/N6.o
 .bss._ZL13dcMotMinSpeed
                0x000000000080062e        0x4 ./src/robotProtocol/SerialSenderReceiver.o
 .bss.motor0    0x0000000000800632       0x10 ./src/DuinoBotKids.v1.xx_0022/DCMotor/DCMotor.o
                0x0000000000800632                motor0
 .bss.motor1    0x0000000000800642       0x10 ./src/DuinoBotKids.v1.xx_0022/DCMotor/DCMotor.o
                0x0000000000800642                motor1
 .bss._ZL13dcMotMinSpeed
                0x0000000000800652        0x4 ./src/DuinoBotKids.v1.xx_0022/DCMotor/DCMotor.o
 .bss.rx_buffer_cdc
                0x0000000000800656       0x84 ./src/DuinoBotKids.v1.xx_0022/CDCSerial.o
                0x0000000000800656                rx_buffer_cdc
 .bss.Serial    0x00000000008006da        0x5 ./src/DuinoBotKids.v1.xx_0022/CDCSerial.o
                0x00000000008006da                Serial
 .bss.rx_buffer1
                0x00000000008006df       0x84 ./src/DuinoBotKids.v1.xx_0022/HardwareSerial.o
                0x00000000008006df                rx_buffer1
 .bss.Serial1   0x0000000000800763       0x13 ./src/DuinoBotKids.v1.xx_0022/HardwareSerial.o
                0x0000000000800763                Serial1
 .bss.timer0_toggle_count
                0x0000000000800776        0x4 ./src/DuinoBotKids.v1.xx_0022/Tone.o
                0x0000000000800776                timer0_toggle_count
 .bss.timer0_pin_port
                0x000000000080077a        0x2 ./src/DuinoBotKids.v1.xx_0022/Tone.o
                0x000000000080077a                timer0_pin_port
 .bss.timer0_pin_mask
                0x000000000080077c        0x1 ./src/DuinoBotKids.v1.xx_0022/Tone.o
                0x000000000080077c                timer0_pin_mask
 .bss.timer1_toggle_count
                0x000000000080077d        0x4 ./src/DuinoBotKids.v1.xx_0022/Tone.o
                0x000000000080077d                timer1_toggle_count
 .bss.timer1_pin_port
                0x0000000000800781        0x2 ./src/DuinoBotKids.v1.xx_0022/Tone.o
                0x0000000000800781                timer1_pin_port
 .bss.timer1_pin_mask
                0x0000000000800783        0x1 ./src/DuinoBotKids.v1.xx_0022/Tone.o
                0x0000000000800783                timer1_pin_mask
 .bss.timer2_toggle_count
                0x0000000000800784        0x4 ./src/DuinoBotKids.v1.xx_0022/Tone.o
                0x0000000000800784                timer2_toggle_count
 .bss.timer2_pin_port
                0x0000000000800788        0x2 ./src/DuinoBotKids.v1.xx_0022/Tone.o
                0x0000000000800788                timer2_pin_port
 .bss.timer2_pin_mask
                0x000000000080078a        0x1 ./src/DuinoBotKids.v1.xx_0022/Tone.o
                0x000000000080078a                timer2_pin_mask
 .bss.timer3_toggle_count
                0x000000000080078b        0x4 ./src/DuinoBotKids.v1.xx_0022/Tone.o
                0x000000000080078b                timer3_toggle_count
 .bss.timer3_pin_port
                0x000000000080078f        0x2 ./src/DuinoBotKids.v1.xx_0022/Tone.o
                0x000000000080078f                timer3_pin_port
 .bss.timer3_pin_mask
                0x0000000000800791        0x1 ./src/DuinoBotKids.v1.xx_0022/Tone.o
                0x0000000000800791                timer3_pin_mask
 .bss.timer4_toggle_count
                0x0000000000800792        0x4 ./src/DuinoBotKids.v1.xx_0022/Tone.o
                0x0000000000800792                timer4_toggle_count
 .bss.timer4_pin_port
                0x0000000000800796        0x2 ./src/DuinoBotKids.v1.xx_0022/Tone.o
                0x0000000000800796                timer4_pin_port
 .bss.timer4_pin_mask
                0x0000000000800798        0x1 ./src/DuinoBotKids.v1.xx_0022/Tone.o
                0x0000000000800798                timer4_pin_mask
 .bss.intFunc   0x0000000000800799        0x4 ./src/DuinoBotKids.v1.xx_0022/WInterrupts.o
 .bss._ZL13dcMotMinSpeed
                0x000000000080079d        0x4 ./src/DuinoBotKids.v1.xx_0022/WString.o
 .bss.timer0_overflow_count
                0x00000000008007a1        0x4 ./src/DuinoBotKids.v1.xx_0022/wiring.o
                0x00000000008007a1                timer0_overflow_count
 .bss.timer0_millis
                0x00000000008007a5        0x4 ./src/DuinoBotKids.v1.xx_0022/wiring.o
                0x00000000008007a5                timer0_millis
 .bss._ZL12timer0_fract
                0x00000000008007a9        0x1 ./src/DuinoBotKids.v1.xx_0022/wiring.o
 .bss._ZL13dcMotMinSpeed
                0x00000000008007aa        0x4 ./src/main.o
 *(COMMON)
 COMMON         0x00000000008007ae        0x3 ./src/DuinoBotKids.v1.xx_0022/LUFA/Drivers/USB/HighLevel/DeviceStandardReq.o
                0x00000000008007ae                USB_CurrentlySelfPowered
                0x00000000008007af                USB_RemoteWakeupEnabled
                0x00000000008007b0                USB_ConfigurationNumber
 COMMON         0x00000000008007b1        0xa ./src/DuinoBotKids.v1.xx_0022/LUFA/Drivers/USB/HighLevel/USBTask.o
                0x00000000008007b1                USB_IsInitialized
                0x00000000008007b2                USB_DeviceState
                0x00000000008007b3                USB_ControlRequest
 COMMON         0x00000000008007bb        0x4 /usr/lib/gcc/avr/4.5.3/../../../avr/lib/avr5/libc.a(malloc.o)
                0x00000000008007bb                __brkval
                0x00000000008007bd                __flp
 COMMON         0x00000000008007bf        0x2 /usr/lib/gcc/avr/4.5.3/../../../avr/lib/avr5/libc.a(errno.o)
                0x00000000008007bf                errno
 COMMON         0x00000000008007c1        0x6 /usr/lib/gcc/avr/4.5.3/../../../avr/lib/avr5/libc.a(iob.o)
                0x00000000008007c1                __iob
                0x00000000008007c7                PROVIDE (__bss_end, .)
                0x0000000000006476                __data_load_start = LOADADDR (.data)
                0x0000000000006876                __data_load_end = (__data_load_start + SIZEOF (.data))

.noinit         0x00000000008007c7        0x0
                0x00000000008007c7                PROVIDE (__noinit_start, .)
 *(.noinit*)
                0x00000000008007c7                PROVIDE (__noinit_end, .)
                0x00000000008007c7                _end = .
                0x00000000008007c7                PROVIDE (__heap_start, .)

.eeprom         0x0000000000810000        0x0
 *(.eeprom*)
                0x0000000000810000                __eeprom_end = .

.fuse
 *(.fuse)
 *(.lfuse)
 *(.hfuse)
 *(.efuse)

.lock
 *(.lock*)

.signature
 *(.signature*)

.stab           0x0000000000000000     0x3a5c
 *(.stab)
 .stab          0x0000000000000000      0x6cc /usr/lib/gcc/avr/4.5.3/../../../avr/lib/avr5/crtm32u4.o
 .stab          0x00000000000006cc      0x750 /usr/lib/gcc/avr/4.5.3/../../../avr/lib/avr5/libc.a(malloc.o)
                                        0x75c (size before relaxing)
 .stab          0x0000000000000e1c      0x12c /usr/lib/gcc/avr/4.5.3/../../../avr/lib/avr5/libc.a(random.o)
                                        0x330 (size before relaxing)
 .stab          0x0000000000000f48      0x12c /usr/lib/gcc/avr/4.5.3/../../../avr/lib/avr5/libc.a(realloc.o)
                                        0x5c4 (size before relaxing)
 .stab          0x0000000000001074      0x48c /usr/lib/gcc/avr/4.5.3/../../../avr/lib/avr5/libc.a(strtol.o)
                                        0x4ec (size before relaxing)
 .stab          0x0000000000001500      0x1e0 /usr/lib/gcc/avr/4.5.3/../../../avr/lib/avr5/libc.a(atol.o)
                                        0x1ec (size before relaxing)
 .stab          0x00000000000016e0       0x9c /usr/lib/gcc/avr/4.5.3/../../../avr/lib/avr5/libc.a(isspace.o)
                                         0xa8 (size before relaxing)
 .stab          0x000000000000177c       0x18 /usr/lib/gcc/avr/4.5.3/../../../avr/lib/avr5/libc.a(tolower.o)
                                         0xa8 (size before relaxing)
 .stab          0x0000000000001794       0x18 /usr/lib/gcc/avr/4.5.3/../../../avr/lib/avr5/libc.a(toupper.o)
                                         0xa8 (size before relaxing)
 .stab          0x00000000000017ac       0x84 /usr/lib/gcc/avr/4.5.3/../../../avr/lib/avr5/libc.a(memcpy.o)
                                         0x90 (size before relaxing)
 .stab          0x0000000000001830       0x9c /usr/lib/gcc/avr/4.5.3/../../../avr/lib/avr5/libc.a(strcat.o)
                                         0xa8 (size before relaxing)
 .stab          0x00000000000018cc       0x9c /usr/lib/gcc/avr/4.5.3/../../../avr/lib/avr5/libc.a(strchr.o)
                                         0xa8 (size before relaxing)
 .stab          0x0000000000001968       0x84 /usr/lib/gcc/avr/4.5.3/../../../avr/lib/avr5/libc.a(strcmp.o)
                                         0x90 (size before relaxing)
 .stab          0x00000000000019ec       0x6c /usr/lib/gcc/avr/4.5.3/../../../avr/lib/avr5/libc.a(strcpy.o)
                                         0x78 (size before relaxing)
 .stab          0x0000000000001a58       0xc0 /usr/lib/gcc/avr/4.5.3/../../../avr/lib/avr5/libc.a(strncmp.o)
                                         0xcc (size before relaxing)
 .stab          0x0000000000001b18       0xcc /usr/lib/gcc/avr/4.5.3/../../../avr/lib/avr5/libc.a(strncpy.o)
                                         0xd8 (size before relaxing)
 .stab          0x0000000000001be4       0x9c /usr/lib/gcc/avr/4.5.3/../../../avr/lib/avr5/libc.a(strrchr.o)
                                         0xa8 (size before relaxing)
 .stab          0x0000000000001c80      0x150 /usr/lib/gcc/avr/4.5.3/../../../avr/lib/avr5/libc.a(strstr.o)
                                        0x15c (size before relaxing)
 .stab          0x0000000000001dd0       0x18 /usr/lib/gcc/avr/4.5.3/../../../avr/lib/avr5/libc.a(itoa.o)
                                        0x1bc (size before relaxing)
 .stab          0x0000000000001de8       0x18 /usr/lib/gcc/avr/4.5.3/../../../avr/lib/avr5/libc.a(ltoa.o)
                                        0x2a0 (size before relaxing)
 .stab          0x0000000000001e00      0x114 /usr/lib/gcc/avr/4.5.3/../../../avr/lib/avr5/libc.a(mulsi10.o)
                                        0x120 (size before relaxing)
 .stab          0x0000000000001f14       0x18 /usr/lib/gcc/avr/4.5.3/../../../avr/lib/avr5/libc.a(ultoa.o)
                                        0x1ec (size before relaxing)
 .stab          0x0000000000001f2c      0x1e0 /usr/lib/gcc/avr/4.5.3/../../../avr/lib/avr5/libc.a(printf.o)
                                        0x36c (size before relaxing)
 .stab          0x000000000000210c      0x1f8 /usr/lib/gcc/avr/4.5.3/../../../avr/lib/avr5/libc.a(sprintf.o)
                                        0x3d8 (size before relaxing)
 .stab          0x0000000000002304      0xac8 /usr/lib/gcc/avr/4.5.3/../../../avr/lib/avr5/libc.a(vfprintf_std.o)
                                        0xcd8 (size before relaxing)
 .stab          0x0000000000002dcc       0x90 /usr/lib/gcc/avr/4.5.3/../../../avr/lib/avr5/libc.a(eerd_byte_atmega32u4.o)
                                         0x9c (size before relaxing)
 .stab          0x0000000000002e5c      0x114 /usr/lib/gcc/avr/4.5.3/../../../avr/lib/avr5/libc.a(eeupd_byte_atmega32u4.o)
                                        0x120 (size before relaxing)
 .stab          0x0000000000002f70       0xf0 /usr/lib/gcc/avr/4.5.3/../../../avr/lib/avr5/libc.a(errno.o)
                                         0xfc (size before relaxing)
 .stab          0x0000000000003060       0x60 /usr/lib/gcc/avr/4.5.3/../../../avr/lib/avr5/libc.a(cty_isfalse.o)
                                         0x6c (size before relaxing)
 .stab          0x00000000000030c0       0x9c /usr/lib/gcc/avr/4.5.3/../../../avr/lib/avr5/libc.a(strnlen_P.o)
                                         0xa8 (size before relaxing)
 .stab          0x000000000000315c       0x9c /usr/lib/gcc/avr/4.5.3/../../../avr/lib/avr5/libc.a(strnlen.o)
                                         0xa8 (size before relaxing)
 .stab          0x00000000000031f8       0xd8 /usr/lib/gcc/avr/4.5.3/../../../avr/lib/avr5/libc.a(strrev.o)
                                         0xe4 (size before relaxing)
 .stab          0x00000000000032d0      0x1e0 /usr/lib/gcc/avr/4.5.3/../../../avr/lib/avr5/libc.a(fputc.o)
                                        0x3c0 (size before relaxing)
 .stab          0x00000000000034b0      0x12c /usr/lib/gcc/avr/4.5.3/../../../avr/lib/avr5/libc.a(iob.o)
                                        0x30c (size before relaxing)
 .stab          0x00000000000035dc      0x480 /usr/lib/gcc/avr/4.5.3/../../../avr/lib/avr5/libc.a(ultoa_invert.o)
                                        0x48c (size before relaxing)

.stabstr        0x0000000000000000     0x13d6
 *(.stabstr)
 .stabstr       0x0000000000000000     0x13d6 /usr/lib/gcc/avr/4.5.3/../../../avr/lib/avr5/crtm32u4.o

.stab.excl
 *(.stab.excl)

.stab.exclstr
 *(.stab.exclstr)

.stab.index
 *(.stab.index)

.stab.indexstr
 *(.stab.indexstr)

.comment
 *(.comment)

.debug
 *(.debug)

.line
 *(.line)

.debug_srcinfo
 *(.debug_srcinfo)

.debug_sfnames
 *(.debug_sfnames)

.debug_aranges
 *(.debug_aranges)

.debug_pubnames
 *(.debug_pubnames)

.debug_info
 *(.debug_info)
 *(.gnu.linkonce.wi.*)

.debug_abbrev
 *(.debug_abbrev)

.debug_line
 *(.debug_line)

.debug_frame
 *(.debug_frame)

.debug_str
 *(.debug_str)

.debug_loc
 *(.debug_loc)

.debug_macinfo
 *(.debug_macinfo)
OUTPUT(RobotProtocol.elf elf32-avr)
LOAD linker stubs

Cross Reference Table

Symbol                                            File
CALLBACK_USB_GetDescriptor                        ./src/DuinoBotKids.v1.xx_0022/Descriptors.o
                                                  ./src/DuinoBotKids.v1.xx_0022/LUFA/Drivers/USB/HighLevel/DeviceStandardReq.o
CDCSerial::CDCSerial(ring_buffer*)                ./src/DuinoBotKids.v1.xx_0022/CDCSerial.o
CDCSerial::CDCSerial(ring_buffer*)                ./src/DuinoBotKids.v1.xx_0022/CDCSerial.o
CDCSerial::available()                            ./src/DuinoBotKids.v1.xx_0022/CDCSerial.o
CDCSerial::begin(long)                            ./src/DuinoBotKids.v1.xx_0022/CDCSerial.o
                                                  ./src/robotProtocol/N6.o
CDCSerial::end()                                  ./src/DuinoBotKids.v1.xx_0022/CDCSerial.o
CDCSerial::flush()                                ./src/DuinoBotKids.v1.xx_0022/CDCSerial.o
CDCSerial::read()                                 ./src/DuinoBotKids.v1.xx_0022/CDCSerial.o
CDCSerial::store(char)                            ./src/DuinoBotKids.v1.xx_0022/CDCSerial.o
                                                  ./src/DuinoBotKids.v1.xx_0022/VirtualSerial.o
CDCSerial::write(char const*)                     ./src/DuinoBotKids.v1.xx_0022/CDCSerial.o
CDCSerial::write(unsigned char const*, unsigned int) ./src/DuinoBotKids.v1.xx_0022/CDCSerial.o
CDCSerial::write(unsigned char)                   ./src/DuinoBotKids.v1.xx_0022/CDCSerial.o
CDC_Device_BytesReceived                          ./src/DuinoBotKids.v1.xx_0022/LUFA/Drivers/USB/Class/Device/CDC.o
CDC_Device_ConfigureEndpoints                     ./src/DuinoBotKids.v1.xx_0022/LUFA/Drivers/USB/Class/Device/CDC.o
                                                  ./src/DuinoBotKids.v1.xx_0022/VirtualSerial.o
CDC_Device_CreateBlockingStream                   ./src/DuinoBotKids.v1.xx_0022/LUFA/Drivers/USB/Class/Device/CDC.o
CDC_Device_CreateStream                           ./src/DuinoBotKids.v1.xx_0022/LUFA/Drivers/USB/Class/Device/CDC.o
CDC_Device_Event_Stub                             ./src/DuinoBotKids.v1.xx_0022/LUFA/Drivers/USB/Class/Device/CDC.o
CDC_Device_Flush                                  ./src/DuinoBotKids.v1.xx_0022/LUFA/Drivers/USB/Class/Device/CDC.o
CDC_Device_ProcessControlRequest                  ./src/DuinoBotKids.v1.xx_0022/LUFA/Drivers/USB/Class/Device/CDC.o
                                                  ./src/DuinoBotKids.v1.xx_0022/VirtualSerial.o
CDC_Device_ReceiveByte                            ./src/DuinoBotKids.v1.xx_0022/LUFA/Drivers/USB/Class/Device/CDC.o
                                                  ./src/DuinoBotKids.v1.xx_0022/VirtualSerial.o
CDC_Device_SendByte                               ./src/DuinoBotKids.v1.xx_0022/LUFA/Drivers/USB/Class/Device/CDC.o
                                                  ./src/DuinoBotKids.v1.xx_0022/VirtualSerial.o
CDC_Device_SendControlLineStateChange             ./src/DuinoBotKids.v1.xx_0022/LUFA/Drivers/USB/Class/Device/CDC.o
CDC_Device_SendString                             ./src/DuinoBotKids.v1.xx_0022/LUFA/Drivers/USB/Class/Device/CDC.o
CDC_Device_USBTask                                ./src/DuinoBotKids.v1.xx_0022/LUFA/Drivers/USB/Class/Device/CDC.o
                                                  ./src/DuinoBotKids.v1.xx_0022/VirtualSerial.o
CDC_Send                                          ./src/DuinoBotKids.v1.xx_0022/VirtualSerial.o
                                                  ./src/DuinoBotKids.v1.xx_0022/CDCSerial.o
ConfigurationDescriptor                           ./src/DuinoBotKids.v1.xx_0022/Descriptors.o
DCMotor::DCMotor(int, int, int, bool)             ./src/DuinoBotKids.v1.xx_0022/DCMotor/DCMotor.o
DCMotor::brake()                                  ./src/DuinoBotKids.v1.xx_0022/DCMotor/DCMotor.o
DCMotor::setClockwise(bool)                       ./src/DuinoBotKids.v1.xx_0022/DCMotor/DCMotor.o
                                                  ./src/robotProtocol/N6.o
DCMotor::setSpeed(float)                          ./src/DuinoBotKids.v1.xx_0022/DCMotor/DCMotor.o
                                                  ./src/robotProtocol/N6.o
DTR                                               ./src/DuinoBotKids.v1.xx_0022/VirtualSerial.o
DTR_old                                           ./src/DuinoBotKids.v1.xx_0022/VirtualSerial.o
DeviceDescriptor                                  ./src/DuinoBotKids.v1.xx_0022/Descriptors.o
EVENT_CDC_Device_BreakSent                        ./src/DuinoBotKids.v1.xx_0022/LUFA/Drivers/USB/Class/Device/CDC.o
EVENT_CDC_Device_ControLineStateChanged           ./src/DuinoBotKids.v1.xx_0022/VirtualSerial.o
                                                  ./src/DuinoBotKids.v1.xx_0022/LUFA/Drivers/USB/Class/Device/CDC.o
EVENT_CDC_Device_LineEncodingChanged              ./src/DuinoBotKids.v1.xx_0022/LUFA/Drivers/USB/Class/Device/CDC.o
EVENT_USB_Device_ConfigurationChanged             ./src/DuinoBotKids.v1.xx_0022/VirtualSerial.o
                                                  ./src/DuinoBotKids.v1.xx_0022/LUFA/Drivers/USB/HighLevel/Events.o
                                                  ./src/DuinoBotKids.v1.xx_0022/LUFA/Drivers/USB/HighLevel/DeviceStandardReq.o
EVENT_USB_Device_Connect                          ./src/DuinoBotKids.v1.xx_0022/VirtualSerial.o
                                                  ./src/DuinoBotKids.v1.xx_0022/LUFA/Drivers/USB/HighLevel/Events.o
                                                  ./src/DuinoBotKids.v1.xx_0022/LUFA/Drivers/USB/LowLevel/USBInterrupt.o
EVENT_USB_Device_Disconnect                       ./src/DuinoBotKids.v1.xx_0022/VirtualSerial.o
                                                  ./src/DuinoBotKids.v1.xx_0022/LUFA/Drivers/USB/HighLevel/Events.o
                                                  ./src/DuinoBotKids.v1.xx_0022/LUFA/Drivers/USB/LowLevel/USBInterrupt.o
EVENT_USB_Device_Reset                            ./src/DuinoBotKids.v1.xx_0022/LUFA/Drivers/USB/HighLevel/Events.o
                                                  ./src/DuinoBotKids.v1.xx_0022/LUFA/Drivers/USB/LowLevel/USBInterrupt.o
EVENT_USB_Device_StartOfFrame                     ./src/DuinoBotKids.v1.xx_0022/LUFA/Drivers/USB/HighLevel/Events.o
                                                  ./src/DuinoBotKids.v1.xx_0022/LUFA/Drivers/USB/LowLevel/USBInterrupt.o
EVENT_USB_Device_Suspend                          ./src/DuinoBotKids.v1.xx_0022/LUFA/Drivers/USB/HighLevel/Events.o
                                                  ./src/DuinoBotKids.v1.xx_0022/LUFA/Drivers/USB/LowLevel/USBInterrupt.o
EVENT_USB_Device_UnhandledControlRequest          ./src/DuinoBotKids.v1.xx_0022/VirtualSerial.o
                                                  ./src/DuinoBotKids.v1.xx_0022/LUFA/Drivers/USB/HighLevel/Events.o
                                                  ./src/DuinoBotKids.v1.xx_0022/LUFA/Drivers/USB/HighLevel/DeviceStandardReq.o
EVENT_USB_Device_WakeUp                           ./src/DuinoBotKids.v1.xx_0022/LUFA/Drivers/USB/HighLevel/Events.o
                                                  ./src/DuinoBotKids.v1.xx_0022/LUFA/Drivers/USB/LowLevel/USBInterrupt.o
Endpoint_ClearEndpoints                           ./src/DuinoBotKids.v1.xx_0022/LUFA/Drivers/USB/LowLevel/Endpoint.o
Endpoint_ClearStatusStage                         ./src/DuinoBotKids.v1.xx_0022/LUFA/Drivers/USB/LowLevel/Endpoint.o
                                                  ./src/DuinoBotKids.v1.xx_0022/LUFA/Drivers/USB/Class/Device/CDC.o
                                                  ./src/DuinoBotKids.v1.xx_0022/LUFA/Drivers/USB/HighLevel/DeviceStandardReq.o
Endpoint_ConfigureEndpoint_Prv                    ./src/DuinoBotKids.v1.xx_0022/LUFA/Drivers/USB/LowLevel/Endpoint.o
                                                  ./src/DuinoBotKids.v1.xx_0022/LUFA/Drivers/USB/Class/Device/CDC.o
                                                  ./src/DuinoBotKids.v1.xx_0022/LUFA/Drivers/USB/LowLevel/USBInterrupt.o
                                                  ./src/DuinoBotKids.v1.xx_0022/LUFA/Drivers/USB/LowLevel/USBController.o
Endpoint_Discard_Stream                           ./src/DuinoBotKids.v1.xx_0022/LUFA/Drivers/USB/HighLevel/EndpointStream.o
Endpoint_Read_Control_EStream_BE                  ./src/DuinoBotKids.v1.xx_0022/LUFA/Drivers/USB/HighLevel/EndpointStream.o
Endpoint_Read_Control_EStream_LE                  ./src/DuinoBotKids.v1.xx_0022/LUFA/Drivers/USB/HighLevel/EndpointStream.o
Endpoint_Read_Control_Stream_BE                   ./src/DuinoBotKids.v1.xx_0022/LUFA/Drivers/USB/HighLevel/EndpointStream.o
Endpoint_Read_Control_Stream_LE                   ./src/DuinoBotKids.v1.xx_0022/LUFA/Drivers/USB/HighLevel/EndpointStream.o
                                                  ./src/DuinoBotKids.v1.xx_0022/LUFA/Drivers/USB/Class/Device/CDC.o
Endpoint_Read_EStream_BE                          ./src/DuinoBotKids.v1.xx_0022/LUFA/Drivers/USB/HighLevel/EndpointStream.o
Endpoint_Read_EStream_LE                          ./src/DuinoBotKids.v1.xx_0022/LUFA/Drivers/USB/HighLevel/EndpointStream.o
Endpoint_Read_Stream_BE                           ./src/DuinoBotKids.v1.xx_0022/LUFA/Drivers/USB/HighLevel/EndpointStream.o
Endpoint_Read_Stream_LE                           ./src/DuinoBotKids.v1.xx_0022/LUFA/Drivers/USB/HighLevel/EndpointStream.o
Endpoint_WaitUntilReady                           ./src/DuinoBotKids.v1.xx_0022/LUFA/Drivers/USB/LowLevel/Endpoint.o
                                                  ./src/DuinoBotKids.v1.xx_0022/LUFA/Drivers/USB/Class/Device/CDC.o
                                                  ./src/DuinoBotKids.v1.xx_0022/LUFA/Drivers/USB/HighLevel/EndpointStream.o
Endpoint_Write_Control_EStream_BE                 ./src/DuinoBotKids.v1.xx_0022/LUFA/Drivers/USB/HighLevel/EndpointStream.o
Endpoint_Write_Control_EStream_LE                 ./src/DuinoBotKids.v1.xx_0022/LUFA/Drivers/USB/HighLevel/EndpointStream.o
Endpoint_Write_Control_PStream_BE                 ./src/DuinoBotKids.v1.xx_0022/LUFA/Drivers/USB/HighLevel/EndpointStream.o
Endpoint_Write_Control_PStream_LE                 ./src/DuinoBotKids.v1.xx_0022/LUFA/Drivers/USB/HighLevel/EndpointStream.o
                                                  ./src/DuinoBotKids.v1.xx_0022/LUFA/Drivers/USB/HighLevel/DeviceStandardReq.o
Endpoint_Write_Control_Stream_BE                  ./src/DuinoBotKids.v1.xx_0022/LUFA/Drivers/USB/HighLevel/EndpointStream.o
Endpoint_Write_Control_Stream_LE                  ./src/DuinoBotKids.v1.xx_0022/LUFA/Drivers/USB/HighLevel/EndpointStream.o
                                                  ./src/DuinoBotKids.v1.xx_0022/LUFA/Drivers/USB/Class/Device/CDC.o
Endpoint_Write_EStream_BE                         ./src/DuinoBotKids.v1.xx_0022/LUFA/Drivers/USB/HighLevel/EndpointStream.o
Endpoint_Write_EStream_LE                         ./src/DuinoBotKids.v1.xx_0022/LUFA/Drivers/USB/HighLevel/EndpointStream.o
Endpoint_Write_PStream_BE                         ./src/DuinoBotKids.v1.xx_0022/LUFA/Drivers/USB/HighLevel/EndpointStream.o
Endpoint_Write_PStream_LE                         ./src/DuinoBotKids.v1.xx_0022/LUFA/Drivers/USB/HighLevel/EndpointStream.o
Endpoint_Write_Stream_BE                          ./src/DuinoBotKids.v1.xx_0022/LUFA/Drivers/USB/HighLevel/EndpointStream.o
Endpoint_Write_Stream_LE                          ./src/DuinoBotKids.v1.xx_0022/LUFA/Drivers/USB/HighLevel/EndpointStream.o
                                                  ./src/DuinoBotKids.v1.xx_0022/LUFA/Drivers/USB/Class/Device/CDC.o
HardwareSerial::HardwareSerial(ring_buffer*, unsigned char volatile*, unsigned char volatile*, unsigned char volatile*, unsigned char volatile*, unsigned char volatile*, unsigned char, unsigned char, unsigned char, unsigned char, unsigned char) ./src/DuinoBotKids.v1.xx_0022/HardwareSerial.o
HardwareSerial::HardwareSerial(ring_buffer*, unsigned char volatile*, unsigned char volatile*, unsigned char volatile*, unsigned char volatile*, unsigned char volatile*, unsigned char, unsigned char, unsigned char, unsigned char, unsigned char) ./src/DuinoBotKids.v1.xx_0022/HardwareSerial.o
HardwareSerial::available()                       ./src/DuinoBotKids.v1.xx_0022/HardwareSerial.o
HardwareSerial::begin(long)                       ./src/DuinoBotKids.v1.xx_0022/HardwareSerial.o
                                                  ./src/robotProtocol/N6.o
HardwareSerial::end()                             ./src/DuinoBotKids.v1.xx_0022/HardwareSerial.o
HardwareSerial::flush()                           ./src/DuinoBotKids.v1.xx_0022/HardwareSerial.o
HardwareSerial::peek()                            ./src/DuinoBotKids.v1.xx_0022/HardwareSerial.o
HardwareSerial::read()                            ./src/DuinoBotKids.v1.xx_0022/HardwareSerial.o
HardwareSerial::write(unsigned char)              ./src/DuinoBotKids.v1.xx_0022/HardwareSerial.o
LanguageString                                    ./src/DuinoBotKids.v1.xx_0022/Descriptors.o
Print::print(String const&)                       ./src/DuinoBotKids.v1.xx_0022/Print.o
Print::print(char const*)                         ./src/DuinoBotKids.v1.xx_0022/Print.o
Print::print(char, int)                           ./src/DuinoBotKids.v1.xx_0022/Print.o
Print::print(double, int)                         ./src/DuinoBotKids.v1.xx_0022/Print.o
Print::print(int, int)                            ./src/DuinoBotKids.v1.xx_0022/Print.o
Print::print(long, int)                           ./src/DuinoBotKids.v1.xx_0022/Print.o
Print::print(unsigned char, int)                  ./src/DuinoBotKids.v1.xx_0022/Print.o
Print::print(unsigned int, int)                   ./src/DuinoBotKids.v1.xx_0022/Print.o
Print::print(unsigned long, int)                  ./src/DuinoBotKids.v1.xx_0022/Print.o
Print::printFloat(double, unsigned char)          ./src/DuinoBotKids.v1.xx_0022/Print.o
Print::printNumber(unsigned long, unsigned char)  ./src/DuinoBotKids.v1.xx_0022/Print.o
Print::println()                                  ./src/DuinoBotKids.v1.xx_0022/Print.o
Print::println(String const&)                     ./src/DuinoBotKids.v1.xx_0022/Print.o
Print::println(char const*)                       ./src/DuinoBotKids.v1.xx_0022/Print.o
Print::println(char, int)                         ./src/DuinoBotKids.v1.xx_0022/Print.o
Print::println(double, int)                       ./src/DuinoBotKids.v1.xx_0022/Print.o
Print::println(int, int)                          ./src/DuinoBotKids.v1.xx_0022/Print.o
Print::println(long, int)                         ./src/DuinoBotKids.v1.xx_0022/Print.o
Print::println(unsigned char, int)                ./src/DuinoBotKids.v1.xx_0022/Print.o
Print::println(unsigned int, int)                 ./src/DuinoBotKids.v1.xx_0022/Print.o
Print::println(unsigned long, int)                ./src/DuinoBotKids.v1.xx_0022/Print.o
Print::write(char const*)                         ./src/DuinoBotKids.v1.xx_0022/Print.o
                                                  ./src/DuinoBotKids.v1.xx_0022/HardwareSerial.o
Print::write(unsigned char const*, unsigned int)  ./src/DuinoBotKids.v1.xx_0022/Print.o
                                                  ./src/DuinoBotKids.v1.xx_0022/HardwareSerial.o
ProductString                                     ./src/DuinoBotKids.v1.xx_0022/Descriptors.o
RobotProtocol::Command::Command(RobotProtocol::N6*) ./src/robotProtocol/Command.o
                                                  ./src/robotProtocol/commands/TurnCommand.o
                                                  ./src/robotProtocol/commands/SetMotorSpeedCommand.o
                                                  ./src/robotProtocol/commands/SendKeepAliveCommand.o
                                                  ./src/robotProtocol/commands/ReadUSSensorCommand.o
                                                  ./src/robotProtocol/commands/ReadIRSensorsCommand.o
                                                  ./src/robotProtocol/commands/FollowLineCommand.o
RobotProtocol::Command::Command(RobotProtocol::N6*) ./src/robotProtocol/Command.o
RobotProtocol::Command::isDone()                  ./src/robotProtocol/Command.o
                                                  ./src/robotProtocol/N6.o
RobotProtocol::Command::~Command()                ./src/robotProtocol/Command.o
RobotProtocol::Command::~Command()                ./src/robotProtocol/Command.o
RobotProtocol::Command::~Command()                ./src/robotProtocol/Command.o
                                                  ./src/robotProtocol/commands/TurnCommand.o
                                                  ./src/robotProtocol/commands/SetMotorSpeedCommand.o
                                                  ./src/robotProtocol/commands/SendKeepAliveCommand.o
                                                  ./src/robotProtocol/commands/ReadUSSensorCommand.o
                                                  ./src/robotProtocol/commands/ReadIRSensorsCommand.o
                                                  ./src/robotProtocol/commands/FollowLineCommand.o
RobotProtocol::CommandAcceptedMessage::CommandAcceptedMessage(char*) ./src/robotProtocol/messages/CommandAcceptedMessage.o
RobotProtocol::CommandAcceptedMessage::CommandAcceptedMessage(char*) ./src/robotProtocol/messages/CommandAcceptedMessage.o
RobotProtocol::CommandAcceptedMessage::CommandAcceptedMessage(int, int, int) ./src/robotProtocol/messages/CommandAcceptedMessage.o
                                                  ./src/robotProtocol/N6.o
RobotProtocol::CommandAcceptedMessage::CommandAcceptedMessage(int, int, int) ./src/robotProtocol/messages/CommandAcceptedMessage.o
RobotProtocol::CommandAcceptedMessage::deserialize(char*) ./src/robotProtocol/messages/CommandAcceptedMessage.o
                                                  ./src/main.o
RobotProtocol::CommandAcceptedMessage::getAcceptedMid() ./src/robotProtocol/messages/CommandAcceptedMessage.o
RobotProtocol::CommandAcceptedMessage::getMessageLength() ./src/robotProtocol/messages/CommandAcceptedMessage.o
RobotProtocol::CommandAcceptedMessage::readData(char**) ./src/robotProtocol/messages/CommandAcceptedMessage.o
RobotProtocol::CommandAcceptedMessage::staticMessage ./src/robotProtocol/messages/CommandAcceptedMessage.o
RobotProtocol::CommandAcceptedMessage::writeData(char**) ./src/robotProtocol/messages/CommandAcceptedMessage.o
RobotProtocol::CommandAcceptedMessage::~CommandAcceptedMessage() ./src/robotProtocol/messages/CommandAcceptedMessage.o
RobotProtocol::CommandAcceptedMessage::~CommandAcceptedMessage() ./src/robotProtocol/messages/CommandAcceptedMessage.o
                                                  ./src/robotProtocol/N6.o
RobotProtocol::CommandAcceptedMessage::~CommandAcceptedMessage() ./src/robotProtocol/messages/CommandAcceptedMessage.o
RobotProtocol::CommandErrorMessage::CommandErrorMessage(char*) ./src/robotProtocol/messages/CommandErrorMessage.o
RobotProtocol::CommandErrorMessage::CommandErrorMessage(char*) ./src/robotProtocol/messages/CommandErrorMessage.o
RobotProtocol::CommandErrorMessage::CommandErrorMessage(int, int, int, int) ./src/robotProtocol/messages/CommandErrorMessage.o
RobotProtocol::CommandErrorMessage::CommandErrorMessage(int, int, int, int) ./src/robotProtocol/messages/CommandErrorMessage.o
RobotProtocol::CommandErrorMessage::deserialize(char*) ./src/robotProtocol/messages/CommandErrorMessage.o
                                                  ./src/main.o
RobotProtocol::CommandErrorMessage::getErrorCode() ./src/robotProtocol/messages/CommandErrorMessage.o
RobotProtocol::CommandErrorMessage::getMessageLength() ./src/robotProtocol/messages/CommandErrorMessage.o
RobotProtocol::CommandErrorMessage::getRejectedMid() ./src/robotProtocol/messages/CommandErrorMessage.o
RobotProtocol::CommandErrorMessage::readData(char**) ./src/robotProtocol/messages/CommandErrorMessage.o
RobotProtocol::CommandErrorMessage::staticMessage ./src/robotProtocol/messages/CommandErrorMessage.o
RobotProtocol::CommandErrorMessage::writeData(char**) ./src/robotProtocol/messages/CommandErrorMessage.o
RobotProtocol::CommandErrorMessage::~CommandErrorMessage() ./src/robotProtocol/messages/CommandErrorMessage.o
RobotProtocol::CommandErrorMessage::~CommandErrorMessage() ./src/robotProtocol/messages/CommandErrorMessage.o
RobotProtocol::CommandErrorMessage::~CommandErrorMessage() ./src/robotProtocol/messages/CommandErrorMessage.o
RobotProtocol::CommunicationStartAcknowledgeMessage::CommunicationStartAcknowledgeMessage(char*) ./src/robotProtocol/messages/CommunicationStartAcknowledgeMessage.o
RobotProtocol::CommunicationStartAcknowledgeMessage::CommunicationStartAcknowledgeMessage(char*) ./src/robotProtocol/messages/CommunicationStartAcknowledgeMessage.o
RobotProtocol::CommunicationStartAcknowledgeMessage::CommunicationStartAcknowledgeMessage(int, int) ./src/robotProtocol/messages/CommunicationStartAcknowledgeMessage.o
RobotProtocol::CommunicationStartAcknowledgeMessage::CommunicationStartAcknowledgeMessage(int, int) ./src/robotProtocol/messages/CommunicationStartAcknowledgeMessage.o
RobotProtocol::CommunicationStartAcknowledgeMessage::deserialize(char*) ./src/robotProtocol/messages/CommunicationStartAcknowledgeMessage.o
                                                  ./src/main.o
RobotProtocol::CommunicationStartAcknowledgeMessage::getMessageLength() ./src/robotProtocol/messages/CommunicationStartAcknowledgeMessage.o
RobotProtocol::CommunicationStartAcknowledgeMessage::readData(char**) ./src/robotProtocol/messages/CommunicationStartAcknowledgeMessage.o
RobotProtocol::CommunicationStartAcknowledgeMessage::staticMessage ./src/robotProtocol/messages/CommunicationStartAcknowledgeMessage.o
RobotProtocol::CommunicationStartAcknowledgeMessage::writeData(char**) ./src/robotProtocol/messages/CommunicationStartAcknowledgeMessage.o
RobotProtocol::CommunicationStartAcknowledgeMessage::~CommunicationStartAcknowledgeMessage() ./src/robotProtocol/messages/CommunicationStartAcknowledgeMessage.o
RobotProtocol::CommunicationStartAcknowledgeMessage::~CommunicationStartAcknowledgeMessage() ./src/robotProtocol/messages/CommunicationStartAcknowledgeMessage.o
RobotProtocol::CommunicationStartAcknowledgeMessage::~CommunicationStartAcknowledgeMessage() ./src/robotProtocol/messages/CommunicationStartAcknowledgeMessage.o
RobotProtocol::CommunicationStartMessage::CommunicationStartMessage(char*) ./src/robotProtocol/messages/CommunicationStartMessage.o
RobotProtocol::CommunicationStartMessage::CommunicationStartMessage(char*) ./src/robotProtocol/messages/CommunicationStartMessage.o
RobotProtocol::CommunicationStartMessage::CommunicationStartMessage(int, int) ./src/robotProtocol/messages/CommunicationStartMessage.o
RobotProtocol::CommunicationStartMessage::CommunicationStartMessage(int, int) ./src/robotProtocol/messages/CommunicationStartMessage.o
RobotProtocol::CommunicationStartMessage::deserialize(char*) ./src/robotProtocol/messages/CommunicationStartMessage.o
                                                  ./src/main.o
RobotProtocol::CommunicationStartMessage::getMessageLength() ./src/robotProtocol/messages/CommunicationStartMessage.o
RobotProtocol::CommunicationStartMessage::readData(char**) ./src/robotProtocol/messages/CommunicationStartMessage.o
RobotProtocol::CommunicationStartMessage::staticMessage ./src/robotProtocol/messages/CommunicationStartMessage.o
RobotProtocol::CommunicationStartMessage::writeData(char**) ./src/robotProtocol/messages/CommunicationStartMessage.o
RobotProtocol::CommunicationStartMessage::~CommunicationStartMessage() ./src/robotProtocol/messages/CommunicationStartMessage.o
RobotProtocol::CommunicationStartMessage::~CommunicationStartMessage() ./src/robotProtocol/messages/CommunicationStartMessage.o
RobotProtocol::CommunicationStartMessage::~CommunicationStartMessage() ./src/robotProtocol/messages/CommunicationStartMessage.o
RobotProtocol::CommunicationStopMessage::CommunicationStopMessage(char*) ./src/robotProtocol/messages/CommunicationStopMessage.o
RobotProtocol::CommunicationStopMessage::CommunicationStopMessage(char*) ./src/robotProtocol/messages/CommunicationStopMessage.o
RobotProtocol::CommunicationStopMessage::CommunicationStopMessage(int, int) ./src/robotProtocol/messages/CommunicationStopMessage.o
RobotProtocol::CommunicationStopMessage::CommunicationStopMessage(int, int) ./src/robotProtocol/messages/CommunicationStopMessage.o
RobotProtocol::CommunicationStopMessage::deserialize(char*) ./src/robotProtocol/messages/CommunicationStopMessage.o
                                                  ./src/main.o
RobotProtocol::CommunicationStopMessage::getMessageLength() ./src/robotProtocol/messages/CommunicationStopMessage.o
RobotProtocol::CommunicationStopMessage::readData(char**) ./src/robotProtocol/messages/CommunicationStopMessage.o
RobotProtocol::CommunicationStopMessage::staticMessage ./src/robotProtocol/messages/CommunicationStopMessage.o
RobotProtocol::CommunicationStopMessage::writeData(char**) ./src/robotProtocol/messages/CommunicationStopMessage.o
RobotProtocol::CommunicationStopMessage::~CommunicationStopMessage() ./src/robotProtocol/messages/CommunicationStopMessage.o
RobotProtocol::CommunicationStopMessage::~CommunicationStopMessage() ./src/robotProtocol/messages/CommunicationStopMessage.o
RobotProtocol::CommunicationStopMessage::~CommunicationStopMessage() ./src/robotProtocol/messages/CommunicationStopMessage.o
RobotProtocol::DestinationReachedMessage::DestinationReachedMessage(char*) ./src/robotProtocol/messages/DestinationReachedMessage.o
RobotProtocol::DestinationReachedMessage::DestinationReachedMessage(char*) ./src/robotProtocol/messages/DestinationReachedMessage.o
RobotProtocol::DestinationReachedMessage::DestinationReachedMessage(int, int) ./src/robotProtocol/messages/DestinationReachedMessage.o
RobotProtocol::DestinationReachedMessage::DestinationReachedMessage(int, int) ./src/robotProtocol/messages/DestinationReachedMessage.o
                                                  ./src/robotProtocol/messages/ReusableMessageProxy.o
RobotProtocol::DestinationReachedMessage::deserialize(char*) ./src/robotProtocol/messages/DestinationReachedMessage.o
                                                  ./src/main.o
RobotProtocol::DestinationReachedMessage::getMessageLength() ./src/robotProtocol/messages/DestinationReachedMessage.o
RobotProtocol::DestinationReachedMessage::readData(char**) ./src/robotProtocol/messages/DestinationReachedMessage.o
RobotProtocol::DestinationReachedMessage::staticMessage ./src/robotProtocol/messages/DestinationReachedMessage.o
RobotProtocol::DestinationReachedMessage::writeData(char**) ./src/robotProtocol/messages/DestinationReachedMessage.o
RobotProtocol::DestinationReachedMessage::~DestinationReachedMessage() ./src/robotProtocol/messages/DestinationReachedMessage.o
                                                  ./src/robotProtocol/messages/ReusableMessageProxy.o
RobotProtocol::DestinationReachedMessage::~DestinationReachedMessage() ./src/robotProtocol/messages/DestinationReachedMessage.o
RobotProtocol::DestinationReachedMessage::~DestinationReachedMessage() ./src/robotProtocol/messages/DestinationReachedMessage.o
RobotProtocol::FollowLineCommand::FollowLineCommand(RobotProtocol::N6*) ./src/robotProtocol/commands/FollowLineCommand.o
                                                  ./src/main.o
RobotProtocol::FollowLineCommand::FollowLineCommand(RobotProtocol::N6*) ./src/robotProtocol/commands/FollowLineCommand.o
RobotProtocol::FollowLineCommand::execute(int)    ./src/robotProtocol/commands/FollowLineCommand.o
RobotProtocol::FollowLineCommand::isContinuous()  ./src/robotProtocol/commands/FollowLineCommand.o
RobotProtocol::FollowLineCommand::reset()         ./src/robotProtocol/commands/FollowLineCommand.o
RobotProtocol::FollowLineCommand::resetFromMessage(RobotProtocol::Message*) ./src/robotProtocol/commands/FollowLineCommand.o
RobotProtocol::FollowLineCommand::~FollowLineCommand() ./src/robotProtocol/commands/FollowLineCommand.o
RobotProtocol::FollowLineCommand::~FollowLineCommand() ./src/robotProtocol/commands/FollowLineCommand.o
RobotProtocol::FollowLineCommand::~FollowLineCommand() ./src/robotProtocol/commands/FollowLineCommand.o
RobotProtocol::FollowLineMessage::FollowLineMessage(char*) ./src/robotProtocol/messages/FollowLineMessage.o
RobotProtocol::FollowLineMessage::FollowLineMessage(char*) ./src/robotProtocol/messages/FollowLineMessage.o
RobotProtocol::FollowLineMessage::FollowLineMessage(int, int) ./src/robotProtocol/messages/FollowLineMessage.o
RobotProtocol::FollowLineMessage::FollowLineMessage(int, int) ./src/robotProtocol/messages/FollowLineMessage.o
RobotProtocol::FollowLineMessage::deserialize(char*) ./src/robotProtocol/messages/FollowLineMessage.o
                                                  ./src/main.o
RobotProtocol::FollowLineMessage::getMessageLength() ./src/robotProtocol/messages/FollowLineMessage.o
RobotProtocol::FollowLineMessage::readData(char**) ./src/robotProtocol/messages/FollowLineMessage.o
RobotProtocol::FollowLineMessage::staticMessage   ./src/robotProtocol/messages/FollowLineMessage.o
RobotProtocol::FollowLineMessage::writeData(char**) ./src/robotProtocol/messages/FollowLineMessage.o
RobotProtocol::FollowLineMessage::~FollowLineMessage() ./src/robotProtocol/messages/FollowLineMessage.o
RobotProtocol::FollowLineMessage::~FollowLineMessage() ./src/robotProtocol/messages/FollowLineMessage.o
RobotProtocol::FollowLineMessage::~FollowLineMessage() ./src/robotProtocol/messages/FollowLineMessage.o
RobotProtocol::KeepAliveMessage::KeepAliveMessage() ./src/robotProtocol/messages/KeepAliveMessage.o
RobotProtocol::KeepAliveMessage::KeepAliveMessage() ./src/robotProtocol/messages/KeepAliveMessage.o
                                                  ./src/robotProtocol/N6.o
RobotProtocol::KeepAliveMessage::KeepAliveMessage(char*) ./src/robotProtocol/messages/KeepAliveMessage.o
RobotProtocol::KeepAliveMessage::KeepAliveMessage(char*) ./src/robotProtocol/messages/KeepAliveMessage.o
RobotProtocol::KeepAliveMessage::KeepAliveMessage(int, int, int) ./src/robotProtocol/messages/KeepAliveMessage.o
RobotProtocol::KeepAliveMessage::KeepAliveMessage(int, int, int) ./src/robotProtocol/messages/KeepAliveMessage.o
RobotProtocol::KeepAliveMessage::deserialize(char*) ./src/robotProtocol/messages/KeepAliveMessage.o
                                                  ./src/main.o
RobotProtocol::KeepAliveMessage::getBatteryLeft() ./src/robotProtocol/messages/KeepAliveMessage.o
RobotProtocol::KeepAliveMessage::getMessageLength() ./src/robotProtocol/messages/KeepAliveMessage.o
RobotProtocol::KeepAliveMessage::readData(char**) ./src/robotProtocol/messages/KeepAliveMessage.o
RobotProtocol::KeepAliveMessage::setBatteryLeft(int) ./src/robotProtocol/messages/KeepAliveMessage.o
RobotProtocol::KeepAliveMessage::staticMessage    ./src/robotProtocol/messages/KeepAliveMessage.o
RobotProtocol::KeepAliveMessage::writeData(char**) ./src/robotProtocol/messages/KeepAliveMessage.o
RobotProtocol::KeepAliveMessage::~KeepAliveMessage() ./src/robotProtocol/messages/KeepAliveMessage.o
                                                  ./src/robotProtocol/N6.o
RobotProtocol::KeepAliveMessage::~KeepAliveMessage() ./src/robotProtocol/messages/KeepAliveMessage.o
RobotProtocol::KeepAliveMessage::~KeepAliveMessage() ./src/robotProtocol/messages/KeepAliveMessage.o
RobotProtocol::Message::MESSAGE_HEAD_VALUE        ./src/robotProtocol/Message.o
                                                  ./src/robotProtocol/SerialSenderReceiver.o
RobotProtocol::Message::Message(char*)            ./src/robotProtocol/Message.o
RobotProtocol::Message::Message(char*)            ./src/robotProtocol/Message.o
RobotProtocol::Message::Message(int, int, int, int, int) ./src/robotProtocol/Message.o
RobotProtocol::Message::Message(int, int, int, int, int) ./src/robotProtocol/Message.o
                                                  ./src/robotProtocol/messages/TurnRightMessage.o
                                                  ./src/robotProtocol/messages/TurnLeftMessage.o
                                                  ./src/robotProtocol/messages/TurnAroundMessage.o
                                                  ./src/robotProtocol/messages/SetMotorSpeedMessage.o
                                                  ./src/robotProtocol/messages/RobotStatusMessage.o
                                                  ./src/robotProtocol/messages/RobotLostMessage.o
                                                  ./src/robotProtocol/messages/ReadUSSensorReplyMessage.o
                                                  ./src/robotProtocol/messages/ReadUSSensorMessage.o
                                                  ./src/robotProtocol/messages/ReadIRSensorsReplyMessage.o
                                                  ./src/robotProtocol/messages/ReadIRSensorsMessage.o
                                                  ./src/robotProtocol/messages/KeepAliveMessage.o
                                                  ./src/robotProtocol/messages/FollowLineMessage.o
                                                  ./src/robotProtocol/messages/DestinationReachedMessage.o
                                                  ./src/robotProtocol/messages/CommunicationStopMessage.o
                                                  ./src/robotProtocol/messages/CommunicationStartMessage.o
                                                  ./src/robotProtocol/messages/CommunicationStartAcknowledgeMessage.o
                                                  ./src/robotProtocol/messages/CommandErrorMessage.o
                                                  ./src/robotProtocol/messages/CommandAcceptedMessage.o
RobotProtocol::Message::getFlags()                ./src/robotProtocol/Message.o
RobotProtocol::Message::getFromAddress()          ./src/robotProtocol/Message.o
RobotProtocol::Message::getMessageID()            ./src/robotProtocol/Message.o
                                                  ./src/robotProtocol/N6.o
                                                  ./src/robotProtocol/MessageManager.o
                                                  ./src/robotProtocol/commands/TurnCommand.o
RobotProtocol::Message::getMessageLength()        ./src/robotProtocol/Message.o
                                                  ./src/robotProtocol/messages/TurnRightMessage.o
                                                  ./src/robotProtocol/messages/TurnLeftMessage.o
                                                  ./src/robotProtocol/messages/TurnAroundMessage.o
                                                  ./src/robotProtocol/messages/SetMotorSpeedMessage.o
                                                  ./src/robotProtocol/messages/RobotStatusMessage.o
                                                  ./src/robotProtocol/messages/RobotLostMessage.o
                                                  ./src/robotProtocol/messages/ReadUSSensorReplyMessage.o
                                                  ./src/robotProtocol/messages/ReadUSSensorMessage.o
                                                  ./src/robotProtocol/messages/ReadIRSensorsReplyMessage.o
                                                  ./src/robotProtocol/messages/ReadIRSensorsMessage.o
                                                  ./src/robotProtocol/messages/KeepAliveMessage.o
                                                  ./src/robotProtocol/messages/FollowLineMessage.o
                                                  ./src/robotProtocol/messages/DestinationReachedMessage.o
                                                  ./src/robotProtocol/messages/CommunicationStopMessage.o
                                                  ./src/robotProtocol/messages/CommunicationStartMessage.o
                                                  ./src/robotProtocol/messages/CommunicationStartAcknowledgeMessage.o
                                                  ./src/robotProtocol/messages/CommandErrorMessage.o
                                                  ./src/robotProtocol/messages/CommandAcceptedMessage.o
RobotProtocol::Message::getRevision()             ./src/robotProtocol/Message.o
RobotProtocol::Message::getToAddress()            ./src/robotProtocol/Message.o
RobotProtocol::Message::initialize(char*)         ./src/robotProtocol/Message.o
                                                  ./src/robotProtocol/messages/TurnRightMessage.o
                                                  ./src/robotProtocol/messages/TurnLeftMessage.o
                                                  ./src/robotProtocol/messages/TurnAroundMessage.o
                                                  ./src/robotProtocol/messages/SetMotorSpeedMessage.o
                                                  ./src/robotProtocol/messages/RobotStatusMessage.o
                                                  ./src/robotProtocol/messages/RobotLostMessage.o
                                                  ./src/robotProtocol/messages/ReadUSSensorReplyMessage.o
                                                  ./src/robotProtocol/messages/ReadUSSensorMessage.o
                                                  ./src/robotProtocol/messages/ReadIRSensorsReplyMessage.o
                                                  ./src/robotProtocol/messages/ReadIRSensorsMessage.o
                                                  ./src/robotProtocol/messages/KeepAliveMessage.o
                                                  ./src/robotProtocol/messages/FollowLineMessage.o
                                                  ./src/robotProtocol/messages/DestinationReachedMessage.o
                                                  ./src/robotProtocol/messages/CommunicationStopMessage.o
                                                  ./src/robotProtocol/messages/CommunicationStartMessage.o
                                                  ./src/robotProtocol/messages/CommunicationStartAcknowledgeMessage.o
                                                  ./src/robotProtocol/messages/CommandErrorMessage.o
                                                  ./src/robotProtocol/messages/CommandAcceptedMessage.o
RobotProtocol::Message::readHeader(char**)        ./src/robotProtocol/Message.o
RobotProtocol::Message::serializeMessage(char*)   ./src/robotProtocol/Message.o
                                                  ./src/robotProtocol/MessageManager.o
RobotProtocol::Message::setFromAddress(int)       ./src/robotProtocol/Message.o
                                                  ./src/robotProtocol/messages/ReusableMessageProxy.o
RobotProtocol::Message::setToAddress(int)         ./src/robotProtocol/Message.o
                                                  ./src/robotProtocol/messages/ReusableMessageProxy.o
RobotProtocol::Message::writeHeader(char**)       ./src/robotProtocol/Message.o
RobotProtocol::Message::~Message()                ./src/robotProtocol/Message.o
                                                  ./src/robotProtocol/messages/TurnRightMessage.o
                                                  ./src/robotProtocol/messages/TurnLeftMessage.o
                                                  ./src/robotProtocol/messages/TurnAroundMessage.o
                                                  ./src/robotProtocol/messages/SetMotorSpeedMessage.o
                                                  ./src/robotProtocol/messages/RobotStatusMessage.o
                                                  ./src/robotProtocol/messages/RobotLostMessage.o
                                                  ./src/robotProtocol/messages/ReadUSSensorReplyMessage.o
                                                  ./src/robotProtocol/messages/ReadUSSensorMessage.o
                                                  ./src/robotProtocol/messages/ReadIRSensorsReplyMessage.o
                                                  ./src/robotProtocol/messages/ReadIRSensorsMessage.o
                                                  ./src/robotProtocol/messages/KeepAliveMessage.o
                                                  ./src/robotProtocol/messages/FollowLineMessage.o
                                                  ./src/robotProtocol/messages/DestinationReachedMessage.o
                                                  ./src/robotProtocol/messages/CommunicationStopMessage.o
                                                  ./src/robotProtocol/messages/CommunicationStartMessage.o
                                                  ./src/robotProtocol/messages/CommunicationStartAcknowledgeMessage.o
                                                  ./src/robotProtocol/messages/CommandErrorMessage.o
                                                  ./src/robotProtocol/messages/CommandAcceptedMessage.o
RobotProtocol::Message::~Message()                ./src/robotProtocol/Message.o
RobotProtocol::Message::~Message()                ./src/robotProtocol/Message.o
RobotProtocol::MessageManager::MessageManager(RobotProtocol::MessageReceiver*, RobotProtocol::MessageSender*) ./src/robotProtocol/MessageManager.o
RobotProtocol::MessageManager::MessageManager(RobotProtocol::MessageReceiver*, RobotProtocol::MessageSender*) ./src/robotProtocol/MessageManager.o
                                                  ./src/main.o
RobotProtocol::MessageManager::addDeserializer(int, RobotProtocol::Message* (*)(char*)) ./src/robotProtocol/MessageManager.o
                                                  ./src/main.o
RobotProtocol::MessageManager::deserialize(char*, int) ./src/robotProtocol/MessageManager.o
RobotProtocol::MessageManager::getMidIndex(int)   ./src/robotProtocol/MessageManager.o
RobotProtocol::MessageManager::getNextMessage()   ./src/robotProtocol/MessageManager.o
RobotProtocol::MessageManager::hasPendingMessage() ./src/robotProtocol/MessageManager.o
                                                  ./src/robotProtocol/N6.o
RobotProtocol::MessageManager::sendMessage(RobotProtocol::Message&) ./src/robotProtocol/MessageManager.o
                                                  ./src/robotProtocol/N6.o
                                                  ./src/robotProtocol/commands/TurnCommand.o
                                                  ./src/robotProtocol/commands/SendKeepAliveCommand.o
                                                  ./src/robotProtocol/commands/FollowLineCommand.o
RobotProtocol::MessageManager::sendMessage(char*, int) ./src/robotProtocol/MessageManager.o
RobotProtocol::MessageManager::~MessageManager()  ./src/robotProtocol/MessageManager.o
RobotProtocol::MessageManager::~MessageManager()  ./src/robotProtocol/MessageManager.o
RobotProtocol::MessageManager::~MessageManager()  ./src/robotProtocol/MessageManager.o
RobotProtocol::MessageReceiver::MessageReceiver() ./src/robotProtocol/MessageReceiver.o
RobotProtocol::MessageReceiver::MessageReceiver() ./src/robotProtocol/MessageReceiver.o
                                                  ./src/robotProtocol/SerialSenderReceiver.o
RobotProtocol::MessageReceiver::~MessageReceiver() ./src/robotProtocol/MessageReceiver.o
                                                  ./src/robotProtocol/SerialSenderReceiver.o
RobotProtocol::MessageReceiver::~MessageReceiver() ./src/robotProtocol/MessageReceiver.o
RobotProtocol::MessageReceiver::~MessageReceiver() ./src/robotProtocol/MessageReceiver.o
RobotProtocol::MessageSender::MessageSender()     ./src/robotProtocol/MessageSender.o
RobotProtocol::MessageSender::MessageSender()     ./src/robotProtocol/MessageSender.o
                                                  ./src/robotProtocol/SerialSenderReceiver.o
RobotProtocol::MessageSender::~MessageSender()    ./src/robotProtocol/MessageSender.o
RobotProtocol::MessageSender::~MessageSender()    ./src/robotProtocol/MessageSender.o
RobotProtocol::MessageSender::~MessageSender()    ./src/robotProtocol/MessageSender.o
                                                  ./src/robotProtocol/SerialSenderReceiver.o
RobotProtocol::N6::N6(RobotProtocol::MessageManager*, int) ./src/robotProtocol/N6.o
RobotProtocol::N6::N6(RobotProtocol::MessageManager*, int) ./src/robotProtocol/N6.o
                                                  ./src/main.o
RobotProtocol::N6::N6(RobotProtocol::MessageManager*, int, int) ./src/robotProtocol/N6.o
RobotProtocol::N6::N6(RobotProtocol::MessageManager*, int, int) ./src/robotProtocol/N6.o
RobotProtocol::N6::addCommand(int, RobotProtocol::Command*) ./src/robotProtocol/N6.o
                                                  ./src/main.o
RobotProtocol::N6::beepConfirm()                  ./src/robotProtocol/N6.o
                                                  ./src/main.o
RobotProtocol::N6::beepError()                    ./src/robotProtocol/N6.o
RobotProtocol::N6::beepMasterClear()              ./src/robotProtocol/N6.o
RobotProtocol::N6::beepMasterSet()                ./src/robotProtocol/N6.o
RobotProtocol::N6::getBatteryLeft()               ./src/robotProtocol/N6.o
RobotProtocol::N6::getDistanceToObstacleInCentimeters() ./src/robotProtocol/N6.o
RobotProtocol::N6::getLeftIRSensor()              ./src/robotProtocol/N6.o
                                                  ./src/robotProtocol/commands/FollowLineCommand.o
RobotProtocol::N6::getLeftMotorSpeed()            ./src/robotProtocol/N6.o
RobotProtocol::N6::getMasterId()                  ./src/robotProtocol/N6.o
                                                  ./src/robotProtocol/commands/TurnCommand.o
                                                  ./src/robotProtocol/commands/FollowLineCommand.o
RobotProtocol::N6::getMessageManager()            ./src/robotProtocol/N6.o
                                                  ./src/robotProtocol/commands/TurnCommand.o
                                                  ./src/robotProtocol/commands/SendKeepAliveCommand.o
                                                  ./src/robotProtocol/commands/FollowLineCommand.o
RobotProtocol::N6::getMidIndex(int)               ./src/robotProtocol/N6.o
RobotProtocol::N6::getRightIRSensor()             ./src/robotProtocol/N6.o
                                                  ./src/robotProtocol/commands/FollowLineCommand.o
RobotProtocol::N6::getRightMotorSpeed()           ./src/robotProtocol/N6.o
RobotProtocol::N6::getRobotId()                   ./src/robotProtocol/N6.o
                                                  ./src/robotProtocol/commands/TurnCommand.o
                                                  ./src/robotProtocol/commands/FollowLineCommand.o
RobotProtocol::N6::getTopIRSensor()               ./src/robotProtocol/N6.o
RobotProtocol::N6::getUSSensorDistance()          ./src/robotProtocol/N6.o
RobotProtocol::N6::initialize(RobotProtocol::MessageManager*, int, int) ./src/robotProtocol/N6.o
RobotProtocol::N6::isAlmostOnBlack()              ./src/robotProtocol/N6.o
RobotProtocol::N6::isGoingLeft()                  ./src/robotProtocol/N6.o
RobotProtocol::N6::isGoingRight()                 ./src/robotProtocol/N6.o
RobotProtocol::N6::isLeftOnBlack()                ./src/robotProtocol/N6.o
                                                  ./src/robotProtocol/commands/FollowLineCommand.o
RobotProtocol::N6::isOnBlack()                    ./src/robotProtocol/N6.o
                                                  ./src/robotProtocol/commands/FollowLineCommand.o
RobotProtocol::N6::isOnGray()                     ./src/robotProtocol/N6.o
                                                  ./src/robotProtocol/commands/FollowLineCommand.o
RobotProtocol::N6::isOnTrack()                    ./src/robotProtocol/N6.o
RobotProtocol::N6::isOnWhite()                    ./src/robotProtocol/N6.o
                                                  ./src/robotProtocol/commands/FollowLineCommand.o
RobotProtocol::N6::isRightOnBlack()               ./src/robotProtocol/N6.o
RobotProtocol::N6::processCommandMessage(RobotProtocol::Message*, int) ./src/robotProtocol/N6.o
RobotProtocol::N6::setCommand(int)                ./src/robotProtocol/N6.o
RobotProtocol::N6::setLeftMotorSpeed(float)       ./src/robotProtocol/N6.o
                                                  ./src/robotProtocol/commands/TurnCommand.o
                                                  ./src/robotProtocol/commands/SetMotorSpeedCommand.o
                                                  ./src/robotProtocol/commands/FollowLineCommand.o
RobotProtocol::N6::setRightMotorSpeed(float)      ./src/robotProtocol/N6.o
                                                  ./src/robotProtocol/commands/TurnCommand.o
                                                  ./src/robotProtocol/commands/SetMotorSpeedCommand.o
                                                  ./src/robotProtocol/commands/FollowLineCommand.o
RobotProtocol::N6::update(int)                    ./src/robotProtocol/N6.o
                                                  ./src/main.o
RobotProtocol::N6::~N6()                          ./src/robotProtocol/N6.o
RobotProtocol::N6::~N6()                          ./src/robotProtocol/N6.o
RobotProtocol::N6::~N6()                          ./src/robotProtocol/N6.o
RobotProtocol::ReadIRSensorsCommand::ReadIRSensorsCommand(RobotProtocol::N6*) ./src/robotProtocol/commands/ReadIRSensorsCommand.o
RobotProtocol::ReadIRSensorsCommand::ReadIRSensorsCommand(RobotProtocol::N6*) ./src/robotProtocol/commands/ReadIRSensorsCommand.o
RobotProtocol::ReadIRSensorsCommand::execute(int) ./src/robotProtocol/commands/ReadIRSensorsCommand.o
RobotProtocol::ReadIRSensorsCommand::isContinuous() ./src/robotProtocol/commands/ReadIRSensorsCommand.o
RobotProtocol::ReadIRSensorsCommand::reset()      ./src/robotProtocol/commands/ReadIRSensorsCommand.o
RobotProtocol::ReadIRSensorsCommand::resetFromMessage(RobotProtocol::Message*) ./src/robotProtocol/commands/ReadIRSensorsCommand.o
RobotProtocol::ReadIRSensorsCommand::~ReadIRSensorsCommand() ./src/robotProtocol/commands/ReadIRSensorsCommand.o
RobotProtocol::ReadIRSensorsCommand::~ReadIRSensorsCommand() ./src/robotProtocol/commands/ReadIRSensorsCommand.o
RobotProtocol::ReadIRSensorsCommand::~ReadIRSensorsCommand() ./src/robotProtocol/commands/ReadIRSensorsCommand.o
RobotProtocol::ReadIRSensorsMessage::ReadIRSensorsMessage(char*) ./src/robotProtocol/messages/ReadIRSensorsMessage.o
RobotProtocol::ReadIRSensorsMessage::ReadIRSensorsMessage(char*) ./src/robotProtocol/messages/ReadIRSensorsMessage.o
RobotProtocol::ReadIRSensorsMessage::ReadIRSensorsMessage(int, int) ./src/robotProtocol/messages/ReadIRSensorsMessage.o
RobotProtocol::ReadIRSensorsMessage::ReadIRSensorsMessage(int, int) ./src/robotProtocol/messages/ReadIRSensorsMessage.o
RobotProtocol::ReadIRSensorsMessage::deserialize(char*) ./src/robotProtocol/messages/ReadIRSensorsMessage.o
RobotProtocol::ReadIRSensorsMessage::getMessageLength() ./src/robotProtocol/messages/ReadIRSensorsMessage.o
RobotProtocol::ReadIRSensorsMessage::readData(char**) ./src/robotProtocol/messages/ReadIRSensorsMessage.o
RobotProtocol::ReadIRSensorsMessage::staticMessage ./src/robotProtocol/messages/ReadIRSensorsMessage.o
RobotProtocol::ReadIRSensorsMessage::writeData(char**) ./src/robotProtocol/messages/ReadIRSensorsMessage.o
RobotProtocol::ReadIRSensorsMessage::~ReadIRSensorsMessage() ./src/robotProtocol/messages/ReadIRSensorsMessage.o
RobotProtocol::ReadIRSensorsMessage::~ReadIRSensorsMessage() ./src/robotProtocol/messages/ReadIRSensorsMessage.o
RobotProtocol::ReadIRSensorsMessage::~ReadIRSensorsMessage() ./src/robotProtocol/messages/ReadIRSensorsMessage.o
RobotProtocol::ReadIRSensorsReplyMessage::ReadIRSensorsReplyMessage(char*) ./src/robotProtocol/messages/ReadIRSensorsReplyMessage.o
RobotProtocol::ReadIRSensorsReplyMessage::ReadIRSensorsReplyMessage(char*) ./src/robotProtocol/messages/ReadIRSensorsReplyMessage.o
RobotProtocol::ReadIRSensorsReplyMessage::ReadIRSensorsReplyMessage(int, int, int, int, int) ./src/robotProtocol/messages/ReadIRSensorsReplyMessage.o
RobotProtocol::ReadIRSensorsReplyMessage::ReadIRSensorsReplyMessage(int, int, int, int, int) ./src/robotProtocol/messages/ReadIRSensorsReplyMessage.o
RobotProtocol::ReadIRSensorsReplyMessage::deserialize(char*) ./src/robotProtocol/messages/ReadIRSensorsReplyMessage.o
RobotProtocol::ReadIRSensorsReplyMessage::getLeftValue() ./src/robotProtocol/messages/ReadIRSensorsReplyMessage.o
RobotProtocol::ReadIRSensorsReplyMessage::getMessageLength() ./src/robotProtocol/messages/ReadIRSensorsReplyMessage.o
RobotProtocol::ReadIRSensorsReplyMessage::getRightValue() ./src/robotProtocol/messages/ReadIRSensorsReplyMessage.o
RobotProtocol::ReadIRSensorsReplyMessage::getTopValue() ./src/robotProtocol/messages/ReadIRSensorsReplyMessage.o
RobotProtocol::ReadIRSensorsReplyMessage::readData(char**) ./src/robotProtocol/messages/ReadIRSensorsReplyMessage.o
RobotProtocol::ReadIRSensorsReplyMessage::setLeftValue(int) ./src/robotProtocol/messages/ReadIRSensorsReplyMessage.o
RobotProtocol::ReadIRSensorsReplyMessage::setRightValue(int) ./src/robotProtocol/messages/ReadIRSensorsReplyMessage.o
RobotProtocol::ReadIRSensorsReplyMessage::setTopValue(int) ./src/robotProtocol/messages/ReadIRSensorsReplyMessage.o
RobotProtocol::ReadIRSensorsReplyMessage::staticMessage ./src/robotProtocol/messages/ReadIRSensorsReplyMessage.o
RobotProtocol::ReadIRSensorsReplyMessage::writeData(char**) ./src/robotProtocol/messages/ReadIRSensorsReplyMessage.o
RobotProtocol::ReadIRSensorsReplyMessage::~ReadIRSensorsReplyMessage() ./src/robotProtocol/messages/ReadIRSensorsReplyMessage.o
RobotProtocol::ReadIRSensorsReplyMessage::~ReadIRSensorsReplyMessage() ./src/robotProtocol/messages/ReadIRSensorsReplyMessage.o
RobotProtocol::ReadIRSensorsReplyMessage::~ReadIRSensorsReplyMessage() ./src/robotProtocol/messages/ReadIRSensorsReplyMessage.o
RobotProtocol::ReadUSSensorCommand::ReadUSSensorCommand(RobotProtocol::N6*) ./src/robotProtocol/commands/ReadUSSensorCommand.o
RobotProtocol::ReadUSSensorCommand::ReadUSSensorCommand(RobotProtocol::N6*) ./src/robotProtocol/commands/ReadUSSensorCommand.o
RobotProtocol::ReadUSSensorCommand::execute(int)  ./src/robotProtocol/commands/ReadUSSensorCommand.o
RobotProtocol::ReadUSSensorCommand::isContinuous() ./src/robotProtocol/commands/ReadUSSensorCommand.o
RobotProtocol::ReadUSSensorCommand::reset()       ./src/robotProtocol/commands/ReadUSSensorCommand.o
RobotProtocol::ReadUSSensorCommand::resetFromMessage(RobotProtocol::Message*) ./src/robotProtocol/commands/ReadUSSensorCommand.o
RobotProtocol::ReadUSSensorCommand::~ReadUSSensorCommand() ./src/robotProtocol/commands/ReadUSSensorCommand.o
RobotProtocol::ReadUSSensorCommand::~ReadUSSensorCommand() ./src/robotProtocol/commands/ReadUSSensorCommand.o
RobotProtocol::ReadUSSensorCommand::~ReadUSSensorCommand() ./src/robotProtocol/commands/ReadUSSensorCommand.o
RobotProtocol::ReadUSSensorMessage::ReadUSSensorMessage(char*) ./src/robotProtocol/messages/ReadUSSensorMessage.o
RobotProtocol::ReadUSSensorMessage::ReadUSSensorMessage(char*) ./src/robotProtocol/messages/ReadUSSensorMessage.o
RobotProtocol::ReadUSSensorMessage::ReadUSSensorMessage(int, int) ./src/robotProtocol/messages/ReadUSSensorMessage.o
RobotProtocol::ReadUSSensorMessage::ReadUSSensorMessage(int, int) ./src/robotProtocol/messages/ReadUSSensorMessage.o
RobotProtocol::ReadUSSensorMessage::deserialize(char*) ./src/robotProtocol/messages/ReadUSSensorMessage.o
RobotProtocol::ReadUSSensorMessage::getMessageLength() ./src/robotProtocol/messages/ReadUSSensorMessage.o
RobotProtocol::ReadUSSensorMessage::readData(char**) ./src/robotProtocol/messages/ReadUSSensorMessage.o
RobotProtocol::ReadUSSensorMessage::staticMessage ./src/robotProtocol/messages/ReadUSSensorMessage.o
RobotProtocol::ReadUSSensorMessage::writeData(char**) ./src/robotProtocol/messages/ReadUSSensorMessage.o
RobotProtocol::ReadUSSensorMessage::~ReadUSSensorMessage() ./src/robotProtocol/messages/ReadUSSensorMessage.o
RobotProtocol::ReadUSSensorMessage::~ReadUSSensorMessage() ./src/robotProtocol/messages/ReadUSSensorMessage.o
RobotProtocol::ReadUSSensorMessage::~ReadUSSensorMessage() ./src/robotProtocol/messages/ReadUSSensorMessage.o
RobotProtocol::ReadUSSensorReplyMessage::ReadUSSensorReplyMessage(char*) ./src/robotProtocol/messages/ReadUSSensorReplyMessage.o
RobotProtocol::ReadUSSensorReplyMessage::ReadUSSensorReplyMessage(char*) ./src/robotProtocol/messages/ReadUSSensorReplyMessage.o
RobotProtocol::ReadUSSensorReplyMessage::ReadUSSensorReplyMessage(int, int, int) ./src/robotProtocol/messages/ReadUSSensorReplyMessage.o
RobotProtocol::ReadUSSensorReplyMessage::ReadUSSensorReplyMessage(int, int, int) ./src/robotProtocol/messages/ReadUSSensorReplyMessage.o
RobotProtocol::ReadUSSensorReplyMessage::deserialize(char*) ./src/robotProtocol/messages/ReadUSSensorReplyMessage.o
RobotProtocol::ReadUSSensorReplyMessage::getDistance() ./src/robotProtocol/messages/ReadUSSensorReplyMessage.o
RobotProtocol::ReadUSSensorReplyMessage::getMessageLength() ./src/robotProtocol/messages/ReadUSSensorReplyMessage.o
RobotProtocol::ReadUSSensorReplyMessage::readData(char**) ./src/robotProtocol/messages/ReadUSSensorReplyMessage.o
RobotProtocol::ReadUSSensorReplyMessage::setDistance(int) ./src/robotProtocol/messages/ReadUSSensorReplyMessage.o
RobotProtocol::ReadUSSensorReplyMessage::staticMessage ./src/robotProtocol/messages/ReadUSSensorReplyMessage.o
RobotProtocol::ReadUSSensorReplyMessage::writeData(char**) ./src/robotProtocol/messages/ReadUSSensorReplyMessage.o
RobotProtocol::ReadUSSensorReplyMessage::~ReadUSSensorReplyMessage() ./src/robotProtocol/messages/ReadUSSensorReplyMessage.o
RobotProtocol::ReadUSSensorReplyMessage::~ReadUSSensorReplyMessage() ./src/robotProtocol/messages/ReadUSSensorReplyMessage.o
RobotProtocol::ReadUSSensorReplyMessage::~ReadUSSensorReplyMessage() ./src/robotProtocol/messages/ReadUSSensorReplyMessage.o
RobotProtocol::ReusableMessageProxy::ReusableMessageProxy() ./src/robotProtocol/messages/ReusableMessageProxy.o
RobotProtocol::ReusableMessageProxy::ReusableMessageProxy() ./src/robotProtocol/messages/ReusableMessageProxy.o
RobotProtocol::ReusableMessageProxy::destinationReachedMessage ./src/robotProtocol/messages/ReusableMessageProxy.o
RobotProtocol::ReusableMessageProxy::getDestinationReachedMessage(int, int) ./src/robotProtocol/messages/ReusableMessageProxy.o
                                                  ./src/robotProtocol/commands/TurnCommand.o
                                                  ./src/robotProtocol/commands/FollowLineCommand.o
RobotProtocol::ReusableMessageProxy::getRobotLostMessage(int, int) ./src/robotProtocol/messages/ReusableMessageProxy.o
                                                  ./src/robotProtocol/commands/FollowLineCommand.o
RobotProtocol::ReusableMessageProxy::robotLostMessage ./src/robotProtocol/messages/ReusableMessageProxy.o
RobotProtocol::ReusableMessageProxy::~ReusableMessageProxy() ./src/robotProtocol/messages/ReusableMessageProxy.o
RobotProtocol::ReusableMessageProxy::~ReusableMessageProxy() ./src/robotProtocol/messages/ReusableMessageProxy.o
RobotProtocol::ReusableMessageProxy::~ReusableMessageProxy() ./src/robotProtocol/messages/ReusableMessageProxy.o
RobotProtocol::RobotLostMessage::RobotLostMessage(char*) ./src/robotProtocol/messages/RobotLostMessage.o
RobotProtocol::RobotLostMessage::RobotLostMessage(char*) ./src/robotProtocol/messages/RobotLostMessage.o
RobotProtocol::RobotLostMessage::RobotLostMessage(int, int) ./src/robotProtocol/messages/RobotLostMessage.o
                                                  ./src/robotProtocol/messages/ReusableMessageProxy.o
RobotProtocol::RobotLostMessage::RobotLostMessage(int, int) ./src/robotProtocol/messages/RobotLostMessage.o
RobotProtocol::RobotLostMessage::deserialize(char*) ./src/robotProtocol/messages/RobotLostMessage.o
                                                  ./src/main.o
RobotProtocol::RobotLostMessage::getMessageLength() ./src/robotProtocol/messages/RobotLostMessage.o
RobotProtocol::RobotLostMessage::readData(char**) ./src/robotProtocol/messages/RobotLostMessage.o
RobotProtocol::RobotLostMessage::staticMessage    ./src/robotProtocol/messages/RobotLostMessage.o
RobotProtocol::RobotLostMessage::writeData(char**) ./src/robotProtocol/messages/RobotLostMessage.o
RobotProtocol::RobotLostMessage::~RobotLostMessage() ./src/robotProtocol/messages/RobotLostMessage.o
RobotProtocol::RobotLostMessage::~RobotLostMessage() ./src/robotProtocol/messages/RobotLostMessage.o
                                                  ./src/robotProtocol/messages/ReusableMessageProxy.o
RobotProtocol::RobotLostMessage::~RobotLostMessage() ./src/robotProtocol/messages/RobotLostMessage.o
RobotProtocol::RobotStatusMessage::RobotStatusMessage(char*) ./src/robotProtocol/messages/RobotStatusMessage.o
RobotProtocol::RobotStatusMessage::RobotStatusMessage(char*) ./src/robotProtocol/messages/RobotStatusMessage.o
RobotProtocol::RobotStatusMessage::RobotStatusMessage(int, int, int, int, int, int, int) ./src/robotProtocol/messages/RobotStatusMessage.o
RobotProtocol::RobotStatusMessage::RobotStatusMessage(int, int, int, int, int, int, int) ./src/robotProtocol/messages/RobotStatusMessage.o
RobotProtocol::RobotStatusMessage::deserialize(char*) ./src/robotProtocol/messages/RobotStatusMessage.o
RobotProtocol::RobotStatusMessage::getBatteryValue() ./src/robotProtocol/messages/RobotStatusMessage.o
RobotProtocol::RobotStatusMessage::getLeftIRValue() ./src/robotProtocol/messages/RobotStatusMessage.o
RobotProtocol::RobotStatusMessage::getLeftSpeedValue() ./src/robotProtocol/messages/RobotStatusMessage.o
RobotProtocol::RobotStatusMessage::getMessageLength() ./src/robotProtocol/messages/RobotStatusMessage.o
RobotProtocol::RobotStatusMessage::getRightIRValue() ./src/robotProtocol/messages/RobotStatusMessage.o
RobotProtocol::RobotStatusMessage::getRightSpeedValue() ./src/robotProtocol/messages/RobotStatusMessage.o
RobotProtocol::RobotStatusMessage::readData(char**) ./src/robotProtocol/messages/RobotStatusMessage.o
RobotProtocol::RobotStatusMessage::setBatteryValue(int) ./src/robotProtocol/messages/RobotStatusMessage.o
RobotProtocol::RobotStatusMessage::setLeftIRValue(int) ./src/robotProtocol/messages/RobotStatusMessage.o
RobotProtocol::RobotStatusMessage::setLeftSpeedValue(int) ./src/robotProtocol/messages/RobotStatusMessage.o
RobotProtocol::RobotStatusMessage::setRightIRValue(int) ./src/robotProtocol/messages/RobotStatusMessage.o
RobotProtocol::RobotStatusMessage::setRightSpeedValue(int) ./src/robotProtocol/messages/RobotStatusMessage.o
RobotProtocol::RobotStatusMessage::staticMessage  ./src/robotProtocol/messages/RobotStatusMessage.o
RobotProtocol::RobotStatusMessage::writeData(char**) ./src/robotProtocol/messages/RobotStatusMessage.o
RobotProtocol::RobotStatusMessage::~RobotStatusMessage() ./src/robotProtocol/messages/RobotStatusMessage.o
RobotProtocol::RobotStatusMessage::~RobotStatusMessage() ./src/robotProtocol/messages/RobotStatusMessage.o
RobotProtocol::RobotStatusMessage::~RobotStatusMessage() ./src/robotProtocol/messages/RobotStatusMessage.o
RobotProtocol::SendKeepAliveCommand::SendKeepAliveCommand(RobotProtocol::N6*, RobotProtocol::Message*) ./src/robotProtocol/commands/SendKeepAliveCommand.o
RobotProtocol::SendKeepAliveCommand::SendKeepAliveCommand(RobotProtocol::N6*, RobotProtocol::Message*) ./src/robotProtocol/commands/SendKeepAliveCommand.o
RobotProtocol::SendKeepAliveCommand::execute(int) ./src/robotProtocol/commands/SendKeepAliveCommand.o
RobotProtocol::SendKeepAliveCommand::isContinuous() ./src/robotProtocol/commands/SendKeepAliveCommand.o
RobotProtocol::SendKeepAliveCommand::reset()      ./src/robotProtocol/commands/SendKeepAliveCommand.o
RobotProtocol::SendKeepAliveCommand::resetFromMessage(RobotProtocol::Message*) ./src/robotProtocol/commands/SendKeepAliveCommand.o
RobotProtocol::SendKeepAliveCommand::~SendKeepAliveCommand() ./src/robotProtocol/commands/SendKeepAliveCommand.o
RobotProtocol::SendKeepAliveCommand::~SendKeepAliveCommand() ./src/robotProtocol/commands/SendKeepAliveCommand.o
RobotProtocol::SendKeepAliveCommand::~SendKeepAliveCommand() ./src/robotProtocol/commands/SendKeepAliveCommand.o
RobotProtocol::SerialSenderReceiver::SerialSenderReceiver() ./src/robotProtocol/SerialSenderReceiver.o
                                                  ./src/main.o
RobotProtocol::SerialSenderReceiver::SerialSenderReceiver() ./src/robotProtocol/SerialSenderReceiver.o
RobotProtocol::SerialSenderReceiver::getNextMessage(char*, int&) ./src/robotProtocol/SerialSenderReceiver.o
RobotProtocol::SerialSenderReceiver::hasPendingMessage() ./src/robotProtocol/SerialSenderReceiver.o
RobotProtocol::SerialSenderReceiver::sendMessage(char*, int) ./src/robotProtocol/SerialSenderReceiver.o
RobotProtocol::SerialSenderReceiver::~SerialSenderReceiver() ./src/robotProtocol/SerialSenderReceiver.o
RobotProtocol::SerialSenderReceiver::~SerialSenderReceiver() ./src/robotProtocol/SerialSenderReceiver.o
RobotProtocol::SerialSenderReceiver::~SerialSenderReceiver() ./src/robotProtocol/SerialSenderReceiver.o
RobotProtocol::SetMotorSpeedCommand::SetMotorSpeedCommand(RobotProtocol::N6*) ./src/robotProtocol/commands/SetMotorSpeedCommand.o
RobotProtocol::SetMotorSpeedCommand::SetMotorSpeedCommand(RobotProtocol::N6*) ./src/robotProtocol/commands/SetMotorSpeedCommand.o
                                                  ./src/main.o
RobotProtocol::SetMotorSpeedCommand::execute(int) ./src/robotProtocol/commands/SetMotorSpeedCommand.o
RobotProtocol::SetMotorSpeedCommand::getLeftSpeed() ./src/robotProtocol/commands/SetMotorSpeedCommand.o
RobotProtocol::SetMotorSpeedCommand::getRightSpeed() ./src/robotProtocol/commands/SetMotorSpeedCommand.o
RobotProtocol::SetMotorSpeedCommand::isContinuous() ./src/robotProtocol/commands/SetMotorSpeedCommand.o
RobotProtocol::SetMotorSpeedCommand::reset()      ./src/robotProtocol/commands/SetMotorSpeedCommand.o
RobotProtocol::SetMotorSpeedCommand::resetFromMessage(RobotProtocol::Message*) ./src/robotProtocol/commands/SetMotorSpeedCommand.o
RobotProtocol::SetMotorSpeedCommand::setLeftSpeed(int) ./src/robotProtocol/commands/SetMotorSpeedCommand.o
RobotProtocol::SetMotorSpeedCommand::setRightSpeed(int) ./src/robotProtocol/commands/SetMotorSpeedCommand.o
RobotProtocol::SetMotorSpeedCommand::~SetMotorSpeedCommand() ./src/robotProtocol/commands/SetMotorSpeedCommand.o
RobotProtocol::SetMotorSpeedCommand::~SetMotorSpeedCommand() ./src/robotProtocol/commands/SetMotorSpeedCommand.o
RobotProtocol::SetMotorSpeedCommand::~SetMotorSpeedCommand() ./src/robotProtocol/commands/SetMotorSpeedCommand.o
RobotProtocol::SetMotorSpeedMessage::SetMotorSpeedMessage(char*) ./src/robotProtocol/messages/SetMotorSpeedMessage.o
RobotProtocol::SetMotorSpeedMessage::SetMotorSpeedMessage(char*) ./src/robotProtocol/messages/SetMotorSpeedMessage.o
RobotProtocol::SetMotorSpeedMessage::SetMotorSpeedMessage(int, int, int, int) ./src/robotProtocol/messages/SetMotorSpeedMessage.o
RobotProtocol::SetMotorSpeedMessage::SetMotorSpeedMessage(int, int, int, int) ./src/robotProtocol/messages/SetMotorSpeedMessage.o
RobotProtocol::SetMotorSpeedMessage::deserialize(char*) ./src/robotProtocol/messages/SetMotorSpeedMessage.o
                                                  ./src/main.o
RobotProtocol::SetMotorSpeedMessage::getLeftSpeed() ./src/robotProtocol/messages/SetMotorSpeedMessage.o
                                                  ./src/robotProtocol/commands/SetMotorSpeedCommand.o
RobotProtocol::SetMotorSpeedMessage::getMessageLength() ./src/robotProtocol/messages/SetMotorSpeedMessage.o
RobotProtocol::SetMotorSpeedMessage::getRightSpeed() ./src/robotProtocol/messages/SetMotorSpeedMessage.o
                                                  ./src/robotProtocol/commands/SetMotorSpeedCommand.o
RobotProtocol::SetMotorSpeedMessage::readData(char**) ./src/robotProtocol/messages/SetMotorSpeedMessage.o
RobotProtocol::SetMotorSpeedMessage::staticMessage ./src/robotProtocol/messages/SetMotorSpeedMessage.o
RobotProtocol::SetMotorSpeedMessage::writeData(char**) ./src/robotProtocol/messages/SetMotorSpeedMessage.o
RobotProtocol::SetMotorSpeedMessage::~SetMotorSpeedMessage() ./src/robotProtocol/messages/SetMotorSpeedMessage.o
RobotProtocol::SetMotorSpeedMessage::~SetMotorSpeedMessage() ./src/robotProtocol/messages/SetMotorSpeedMessage.o
RobotProtocol::SetMotorSpeedMessage::~SetMotorSpeedMessage() ./src/robotProtocol/messages/SetMotorSpeedMessage.o
RobotProtocol::TurnAroundMessage::TurnAroundMessage(char*) ./src/robotProtocol/messages/TurnAroundMessage.o
RobotProtocol::TurnAroundMessage::TurnAroundMessage(char*) ./src/robotProtocol/messages/TurnAroundMessage.o
RobotProtocol::TurnAroundMessage::TurnAroundMessage(int, int) ./src/robotProtocol/messages/TurnAroundMessage.o
RobotProtocol::TurnAroundMessage::TurnAroundMessage(int, int) ./src/robotProtocol/messages/TurnAroundMessage.o
RobotProtocol::TurnAroundMessage::deserialize(char*) ./src/robotProtocol/messages/TurnAroundMessage.o
                                                  ./src/main.o
RobotProtocol::TurnAroundMessage::getMessageLength() ./src/robotProtocol/messages/TurnAroundMessage.o
RobotProtocol::TurnAroundMessage::readData(char**) ./src/robotProtocol/messages/TurnAroundMessage.o
RobotProtocol::TurnAroundMessage::staticMessage   ./src/robotProtocol/messages/TurnAroundMessage.o
RobotProtocol::TurnAroundMessage::writeData(char**) ./src/robotProtocol/messages/TurnAroundMessage.o
RobotProtocol::TurnAroundMessage::~TurnAroundMessage() ./src/robotProtocol/messages/TurnAroundMessage.o
RobotProtocol::TurnAroundMessage::~TurnAroundMessage() ./src/robotProtocol/messages/TurnAroundMessage.o
RobotProtocol::TurnAroundMessage::~TurnAroundMessage() ./src/robotProtocol/messages/TurnAroundMessage.o
RobotProtocol::TurnCommand::TurnCommand(RobotProtocol::N6*) ./src/robotProtocol/commands/TurnCommand.o
RobotProtocol::TurnCommand::TurnCommand(RobotProtocol::N6*) ./src/robotProtocol/commands/TurnCommand.o
                                                  ./src/main.o
RobotProtocol::TurnCommand::execute(int)          ./src/robotProtocol/commands/TurnCommand.o
RobotProtocol::TurnCommand::isContinuous()        ./src/robotProtocol/commands/TurnCommand.o
RobotProtocol::TurnCommand::reset()               ./src/robotProtocol/commands/TurnCommand.o
RobotProtocol::TurnCommand::resetFromMessage(RobotProtocol::Message*) ./src/robotProtocol/commands/TurnCommand.o
RobotProtocol::TurnCommand::~TurnCommand()        ./src/robotProtocol/commands/TurnCommand.o
RobotProtocol::TurnCommand::~TurnCommand()        ./src/robotProtocol/commands/TurnCommand.o
RobotProtocol::TurnCommand::~TurnCommand()        ./src/robotProtocol/commands/TurnCommand.o
RobotProtocol::TurnLeftMessage::TurnLeftMessage(char*) ./src/robotProtocol/messages/TurnLeftMessage.o
RobotProtocol::TurnLeftMessage::TurnLeftMessage(char*) ./src/robotProtocol/messages/TurnLeftMessage.o
RobotProtocol::TurnLeftMessage::TurnLeftMessage(int, int) ./src/robotProtocol/messages/TurnLeftMessage.o
RobotProtocol::TurnLeftMessage::TurnLeftMessage(int, int) ./src/robotProtocol/messages/TurnLeftMessage.o
RobotProtocol::TurnLeftMessage::deserialize(char*) ./src/robotProtocol/messages/TurnLeftMessage.o
                                                  ./src/main.o
RobotProtocol::TurnLeftMessage::getMessageLength() ./src/robotProtocol/messages/TurnLeftMessage.o
RobotProtocol::TurnLeftMessage::readData(char**)  ./src/robotProtocol/messages/TurnLeftMessage.o
RobotProtocol::TurnLeftMessage::staticMessage     ./src/robotProtocol/messages/TurnLeftMessage.o
RobotProtocol::TurnLeftMessage::writeData(char**) ./src/robotProtocol/messages/TurnLeftMessage.o
RobotProtocol::TurnLeftMessage::~TurnLeftMessage() ./src/robotProtocol/messages/TurnLeftMessage.o
RobotProtocol::TurnLeftMessage::~TurnLeftMessage() ./src/robotProtocol/messages/TurnLeftMessage.o
RobotProtocol::TurnLeftMessage::~TurnLeftMessage() ./src/robotProtocol/messages/TurnLeftMessage.o
RobotProtocol::TurnRightMessage::TurnRightMessage(char*) ./src/robotProtocol/messages/TurnRightMessage.o
RobotProtocol::TurnRightMessage::TurnRightMessage(char*) ./src/robotProtocol/messages/TurnRightMessage.o
RobotProtocol::TurnRightMessage::TurnRightMessage(int, int) ./src/robotProtocol/messages/TurnRightMessage.o
RobotProtocol::TurnRightMessage::TurnRightMessage(int, int) ./src/robotProtocol/messages/TurnRightMessage.o
RobotProtocol::TurnRightMessage::deserialize(char*) ./src/robotProtocol/messages/TurnRightMessage.o
                                                  ./src/main.o
RobotProtocol::TurnRightMessage::getMessageLength() ./src/robotProtocol/messages/TurnRightMessage.o
RobotProtocol::TurnRightMessage::readData(char**) ./src/robotProtocol/messages/TurnRightMessage.o
RobotProtocol::TurnRightMessage::staticMessage    ./src/robotProtocol/messages/TurnRightMessage.o
RobotProtocol::TurnRightMessage::writeData(char**) ./src/robotProtocol/messages/TurnRightMessage.o
RobotProtocol::TurnRightMessage::~TurnRightMessage() ./src/robotProtocol/messages/TurnRightMessage.o
RobotProtocol::TurnRightMessage::~TurnRightMessage() ./src/robotProtocol/messages/TurnRightMessage.o
RobotProtocol::TurnRightMessage::~TurnRightMessage() ./src/robotProtocol/messages/TurnRightMessage.o
Serial                                            ./src/DuinoBotKids.v1.xx_0022/CDCSerial.o
                                                  ./src/DuinoBotKids.v1.xx_0022/VirtualSerial.o
                                                  ./src/robotProtocol/N6.o
Serial1                                           ./src/DuinoBotKids.v1.xx_0022/HardwareSerial.o
                                                  ./src/robotProtocol/SerialSenderReceiver.o
                                                  ./src/robotProtocol/N6.o
String::String(String const&)                     ./src/DuinoBotKids.v1.xx_0022/WString.o
String::String(String const&)                     ./src/DuinoBotKids.v1.xx_0022/WString.o
String::String(char const*)                       ./src/DuinoBotKids.v1.xx_0022/WString.o
String::String(char const*)                       ./src/DuinoBotKids.v1.xx_0022/WString.o
String::String(char)                              ./src/DuinoBotKids.v1.xx_0022/WString.o
String::String(char)                              ./src/DuinoBotKids.v1.xx_0022/WString.o
String::String(int, int)                          ./src/DuinoBotKids.v1.xx_0022/WString.o
String::String(int, int)                          ./src/DuinoBotKids.v1.xx_0022/WString.o
String::String(long, int)                         ./src/DuinoBotKids.v1.xx_0022/WString.o
String::String(long, int)                         ./src/DuinoBotKids.v1.xx_0022/WString.o
String::String(unsigned char)                     ./src/DuinoBotKids.v1.xx_0022/WString.o
String::String(unsigned char)                     ./src/DuinoBotKids.v1.xx_0022/WString.o
String::String(unsigned int, int)                 ./src/DuinoBotKids.v1.xx_0022/WString.o
String::String(unsigned int, int)                 ./src/DuinoBotKids.v1.xx_0022/WString.o
String::String(unsigned long, int)                ./src/DuinoBotKids.v1.xx_0022/WString.o
String::String(unsigned long, int)                ./src/DuinoBotKids.v1.xx_0022/WString.o
String::charAt(unsigned int) const                ./src/DuinoBotKids.v1.xx_0022/WString.o
String::compareTo(String const&) const            ./src/DuinoBotKids.v1.xx_0022/WString.o
String::concat(String const&)                     ./src/DuinoBotKids.v1.xx_0022/WString.o
String::endsWith(String const&) const             ./src/DuinoBotKids.v1.xx_0022/WString.o
String::equals(String const&) const               ./src/DuinoBotKids.v1.xx_0022/WString.o
String::equalsIgnoreCase(String const&) const     ./src/DuinoBotKids.v1.xx_0022/WString.o
String::getBuffer(unsigned int)                   ./src/DuinoBotKids.v1.xx_0022/WString.o
String::getBytes(unsigned char*, unsigned int)    ./src/DuinoBotKids.v1.xx_0022/WString.o
String::indexOf(String const&) const              ./src/DuinoBotKids.v1.xx_0022/WString.o
String::indexOf(String const&, unsigned int) const ./src/DuinoBotKids.v1.xx_0022/WString.o
String::indexOf(char) const                       ./src/DuinoBotKids.v1.xx_0022/WString.o
String::indexOf(char, unsigned int) const         ./src/DuinoBotKids.v1.xx_0022/WString.o
String::lastIndexOf(String const&) const          ./src/DuinoBotKids.v1.xx_0022/WString.o
String::lastIndexOf(String const&, unsigned int) const ./src/DuinoBotKids.v1.xx_0022/WString.o
String::lastIndexOf(char) const                   ./src/DuinoBotKids.v1.xx_0022/WString.o
String::lastIndexOf(char, unsigned int) const     ./src/DuinoBotKids.v1.xx_0022/WString.o
String::operator!=(String const&) const           ./src/DuinoBotKids.v1.xx_0022/WString.o
String::operator+=(String const&)                 ./src/DuinoBotKids.v1.xx_0022/WString.o
String::operator<(String const&) const            ./src/DuinoBotKids.v1.xx_0022/WString.o
String::operator<=(String const&) const           ./src/DuinoBotKids.v1.xx_0022/WString.o
String::operator=(String const&)                  ./src/DuinoBotKids.v1.xx_0022/WString.o
String::operator==(String const&) const           ./src/DuinoBotKids.v1.xx_0022/WString.o
String::operator>(String const&) const            ./src/DuinoBotKids.v1.xx_0022/WString.o
String::operator>=(String const&) const           ./src/DuinoBotKids.v1.xx_0022/WString.o
String::operator[](unsigned int)                  ./src/DuinoBotKids.v1.xx_0022/WString.o
String::operator[](unsigned int) const            ./src/DuinoBotKids.v1.xx_0022/WString.o
                                                  ./src/DuinoBotKids.v1.xx_0022/Print.o
String::replace(String const&, String const&)     ./src/DuinoBotKids.v1.xx_0022/WString.o
String::replace(char, char)                       ./src/DuinoBotKids.v1.xx_0022/WString.o
String::setCharAt(unsigned int, char)             ./src/DuinoBotKids.v1.xx_0022/WString.o
String::startsWith(String const&) const           ./src/DuinoBotKids.v1.xx_0022/WString.o
String::startsWith(String const&, unsigned int) const ./src/DuinoBotKids.v1.xx_0022/WString.o
String::substring(unsigned int) const             ./src/DuinoBotKids.v1.xx_0022/WString.o
String::substring(unsigned int, unsigned int) const ./src/DuinoBotKids.v1.xx_0022/WString.o
String::toCharArray(char*, unsigned int)          ./src/DuinoBotKids.v1.xx_0022/WString.o
String::toInt()                                   ./src/DuinoBotKids.v1.xx_0022/WString.o
String::toLowerCase() const                       ./src/DuinoBotKids.v1.xx_0022/WString.o
String::toUpperCase() const                       ./src/DuinoBotKids.v1.xx_0022/WString.o
String::trim() const                              ./src/DuinoBotKids.v1.xx_0022/WString.o
TIMER2_COMPA_vect                                 ./src/DuinoBotKids.v1.xx_0022/Tone.o
USB_ConfigurationNumber                           ./src/DuinoBotKids.v1.xx_0022/wiring.o
                                                  ./src/DuinoBotKids.v1.xx_0022/LUFA/Drivers/USB/HighLevel/DeviceStandardReq.o
                                                  ./src/DuinoBotKids.v1.xx_0022/LUFA/Drivers/USB/LowLevel/USBInterrupt.o
                                                  ./src/DuinoBotKids.v1.xx_0022/LUFA/Drivers/USB/LowLevel/USBController.o
USB_ControlRequest                                ./src/DuinoBotKids.v1.xx_0022/LUFA/Drivers/USB/Class/Device/CDC.o
                                                  ./src/DuinoBotKids.v1.xx_0022/LUFA/Drivers/USB/HighLevel/USBTask.o
                                                  ./src/DuinoBotKids.v1.xx_0022/LUFA/Drivers/USB/HighLevel/EndpointStream.o
                                                  ./src/DuinoBotKids.v1.xx_0022/LUFA/Drivers/USB/HighLevel/DeviceStandardReq.o
                                                  ./src/DuinoBotKids.v1.xx_0022/LUFA/Drivers/USB/LowLevel/Endpoint.o
USB_CurrentlySelfPowered                          ./src/DuinoBotKids.v1.xx_0022/LUFA/Drivers/USB/HighLevel/DeviceStandardReq.o
                                                  ./src/DuinoBotKids.v1.xx_0022/LUFA/Drivers/USB/LowLevel/USBController.o
USB_DeviceState                                   ./src/DuinoBotKids.v1.xx_0022/wiring.o
                                                  ./src/DuinoBotKids.v1.xx_0022/LUFA/Drivers/USB/Class/Device/CDC.o
                                                  ./src/DuinoBotKids.v1.xx_0022/LUFA/Drivers/USB/HighLevel/USBTask.o
                                                  ./src/DuinoBotKids.v1.xx_0022/LUFA/Drivers/USB/HighLevel/EndpointStream.o
                                                  ./src/DuinoBotKids.v1.xx_0022/LUFA/Drivers/USB/HighLevel/DeviceStandardReq.o
                                                  ./src/DuinoBotKids.v1.xx_0022/LUFA/Drivers/USB/LowLevel/USBInterrupt.o
                                                  ./src/DuinoBotKids.v1.xx_0022/LUFA/Drivers/USB/LowLevel/USBController.o
                                                  ./src/DuinoBotKids.v1.xx_0022/LUFA/Drivers/USB/LowLevel/Endpoint.o
USB_Device_ProcessControlRequest                  ./src/DuinoBotKids.v1.xx_0022/LUFA/Drivers/USB/HighLevel/DeviceStandardReq.o
                                                  ./src/DuinoBotKids.v1.xx_0022/LUFA/Drivers/USB/HighLevel/USBTask.o
USB_Device_SendRemoteWakeup                       ./src/DuinoBotKids.v1.xx_0022/LUFA/Drivers/USB/LowLevel/Device.o
USB_Event_Stub                                    ./src/DuinoBotKids.v1.xx_0022/LUFA/Drivers/USB/HighLevel/Events.o
USB_GetNextDescriptorComp                         ./src/DuinoBotKids.v1.xx_0022/LUFA/Drivers/USB/HighLevel/ConfigDescriptor.o
USB_GetNextDescriptorOfType                       ./src/DuinoBotKids.v1.xx_0022/LUFA/Drivers/USB/HighLevel/ConfigDescriptor.o
USB_GetNextDescriptorOfTypeAfter                  ./src/DuinoBotKids.v1.xx_0022/LUFA/Drivers/USB/HighLevel/ConfigDescriptor.o
USB_GetNextDescriptorOfTypeBefore                 ./src/DuinoBotKids.v1.xx_0022/LUFA/Drivers/USB/HighLevel/ConfigDescriptor.o
USB_INT_ClearAllInterrupts                        ./src/DuinoBotKids.v1.xx_0022/LUFA/Drivers/USB/LowLevel/USBInterrupt.o
                                                  ./src/DuinoBotKids.v1.xx_0022/LUFA/Drivers/USB/LowLevel/USBController.o
USB_INT_DisableAllInterrupts                      ./src/DuinoBotKids.v1.xx_0022/LUFA/Drivers/USB/LowLevel/USBInterrupt.o
                                                  ./src/DuinoBotKids.v1.xx_0022/LUFA/Drivers/USB/LowLevel/USBController.o
USB_Init                                          ./src/DuinoBotKids.v1.xx_0022/LUFA/Drivers/USB/LowLevel/USBController.o
                                                  ./src/DuinoBotKids.v1.xx_0022/wiring.o
USB_IsInitialized                                 ./src/DuinoBotKids.v1.xx_0022/wiring.o
                                                  ./src/DuinoBotKids.v1.xx_0022/LUFA/Drivers/USB/HighLevel/USBTask.o
                                                  ./src/DuinoBotKids.v1.xx_0022/LUFA/Drivers/USB/LowLevel/USBController.o
USB_RemoteWakeupEnabled                           ./src/DuinoBotKids.v1.xx_0022/LUFA/Drivers/USB/HighLevel/DeviceStandardReq.o
                                                  ./src/DuinoBotKids.v1.xx_0022/LUFA/Drivers/USB/LowLevel/USBController.o
USB_ResetInterface                                ./src/DuinoBotKids.v1.xx_0022/LUFA/Drivers/USB/LowLevel/USBController.o
USB_ShutDown                                      ./src/DuinoBotKids.v1.xx_0022/LUFA/Drivers/USB/LowLevel/USBController.o
USB_USBTask                                       ./src/DuinoBotKids.v1.xx_0022/LUFA/Drivers/USB/HighLevel/USBTask.o
                                                  ./src/DuinoBotKids.v1.xx_0022/VirtualSerial.o
                                                  ./src/DuinoBotKids.v1.xx_0022/LUFA/Drivers/USB/Class/Device/CDC.o
VirtualSerial_CDC_Interface                       ./src/DuinoBotKids.v1.xx_0022/VirtualSerial.o
__addsf3                                          /usr/lib/gcc/avr/4.5.3/avr5/libgcc.a(_addsub_sf.o)
                                                  ./src/DuinoBotKids.v1.xx_0022/Print.o
__bad_interrupt                                   /usr/lib/gcc/avr/4.5.3/../../../avr/lib/avr5/crtm32u4.o
__brkval                                          /usr/lib/gcc/avr/4.5.3/../../../avr/lib/avr5/libc.a(realloc.o)
                                                  /usr/lib/gcc/avr/4.5.3/../../../avr/lib/avr5/libc.a(malloc.o)
__bss_end                                         /usr/lib/gcc/avr/4.5.3/avr5/libgcc.a(_clear_bss.o)
__bss_start                                       /usr/lib/gcc/avr/4.5.3/avr5/libgcc.a(_clear_bss.o)
__clz_tab                                         /usr/lib/gcc/avr/4.5.3/avr5/libgcc.a(_clz.o)
                                                  /usr/lib/gcc/avr/4.5.3/avr5/libgcc.a(_clzsi2.o)
__clzsi2                                          /usr/lib/gcc/avr/4.5.3/avr5/libgcc.a(_clzsi2.o)
                                                  /usr/lib/gcc/avr/4.5.3/avr5/libgcc.a(_usi_to_sf.o)
                                                  /usr/lib/gcc/avr/4.5.3/avr5/libgcc.a(_si_to_sf.o)
__ctors_end                                       /usr/lib/gcc/avr/4.5.3/avr5/libgcc.a(_ctors.o)
__ctors_start                                     /usr/lib/gcc/avr/4.5.3/avr5/libgcc.a(_ctors.o)
__ctype_isfalse                                   /usr/lib/gcc/avr/4.5.3/../../../avr/lib/avr5/libc.a(cty_isfalse.o)
                                                  /usr/lib/gcc/avr/4.5.3/../../../avr/lib/avr5/libc.a(isspace.o)
__ctype_istrue                                    /usr/lib/gcc/avr/4.5.3/../../../avr/lib/avr5/libc.a(cty_isfalse.o)
__cxa_pure_virtual                                ./src/DuinoBotKids.v1.xx_0022/CPPLib.o
                                                  ./src/DuinoBotKids.v1.xx_0022/Print.o
                                                  ./src/DuinoBotKids.v1.xx_0022/HardwareSerial.o
                                                  ./src/robotProtocol/MessageSender.o
                                                  ./src/robotProtocol/MessageReceiver.o
                                                  ./src/robotProtocol/Message.o
                                                  ./src/robotProtocol/Command.o
__data_end                                        /usr/lib/gcc/avr/4.5.3/avr5/libgcc.a(_copy_data.o)
__data_load_start                                 /usr/lib/gcc/avr/4.5.3/avr5/libgcc.a(_copy_data.o)
__data_start                                      /usr/lib/gcc/avr/4.5.3/avr5/libgcc.a(_copy_data.o)
__divmodhi4                                       /usr/lib/gcc/avr/4.5.3/avr5/libgcc.a(_divmodhi4.o)
                                                  ./src/DuinoBotKids.v1.xx_0022/CDCSerial.o
                                                  ./src/robotProtocol/commands/FollowLineCommand.o
__divmodsi4                                       /usr/lib/gcc/avr/4.5.3/avr5/libgcc.a(_divmodsi4.o)
                                                  /usr/lib/gcc/avr/4.5.3/../../../avr/lib/avr5/libc.a(random.o)
                                                  ./src/DuinoBotKids.v1.xx_0022/WMath.o
__divsf3                                          /usr/lib/gcc/avr/4.5.3/avr5/libgcc.a(_div_sf.o)
                                                  ./src/DuinoBotKids.v1.xx_0022/Print.o
                                                  ./src/DuinoBotKids.v1.xx_0022/DCMotor/DCMotor.o
__do_clear_bss                                    /usr/lib/gcc/avr/4.5.3/avr5/libgcc.a(_clear_bss.o)
                                                  /usr/lib/gcc/avr/4.5.3/../../../avr/lib/avr5/libc.a(iob.o)
                                                  /usr/lib/gcc/avr/4.5.3/../../../avr/lib/avr5/libc.a(errno.o)
                                                  /usr/lib/gcc/avr/4.5.3/../../../avr/lib/avr5/libc.a(malloc.o)
                                                  ./src/main.o
                                                  ./src/DuinoBotKids.v1.xx_0022/wiring.o
                                                  ./src/DuinoBotKids.v1.xx_0022/WString.o
                                                  ./src/DuinoBotKids.v1.xx_0022/WInterrupts.o
                                                  ./src/DuinoBotKids.v1.xx_0022/Tone.o
                                                  ./src/DuinoBotKids.v1.xx_0022/HardwareSerial.o
                                                  ./src/DuinoBotKids.v1.xx_0022/CDCSerial.o
                                                  ./src/DuinoBotKids.v1.xx_0022/DCMotor/DCMotor.o
                                                  ./src/DuinoBotKids.v1.xx_0022/LUFA/Drivers/USB/HighLevel/USBTask.o
                                                  ./src/DuinoBotKids.v1.xx_0022/LUFA/Drivers/USB/HighLevel/DeviceStandardReq.o
                                                  ./src/robotProtocol/SerialSenderReceiver.o
                                                  ./src/robotProtocol/N6.o
                                                  ./src/robotProtocol/Command.o
                                                  ./src/robotProtocol/commands/TurnCommand.o
                                                  ./src/robotProtocol/commands/SetMotorSpeedCommand.o
                                                  ./src/robotProtocol/commands/SendKeepAliveCommand.o
                                                  ./src/robotProtocol/commands/ReadUSSensorCommand.o
                                                  ./src/robotProtocol/commands/ReadIRSensorsCommand.o
                                                  ./src/robotProtocol/commands/FollowLineCommand.o
                                                  ./src/robotProtocol/messages/TurnRightMessage.o
                                                  ./src/robotProtocol/messages/TurnLeftMessage.o
                                                  ./src/robotProtocol/messages/TurnAroundMessage.o
                                                  ./src/robotProtocol/messages/SetMotorSpeedMessage.o
                                                  ./src/robotProtocol/messages/RobotStatusMessage.o
                                                  ./src/robotProtocol/messages/RobotLostMessage.o
                                                  ./src/robotProtocol/messages/ReusableMessageProxy.o
                                                  ./src/robotProtocol/messages/ReadUSSensorReplyMessage.o
                                                  ./src/robotProtocol/messages/ReadUSSensorMessage.o
                                                  ./src/robotProtocol/messages/ReadIRSensorsReplyMessage.o
                                                  ./src/robotProtocol/messages/ReadIRSensorsMessage.o
                                                  ./src/robotProtocol/messages/KeepAliveMessage.o
                                                  ./src/robotProtocol/messages/FollowLineMessage.o
                                                  ./src/robotProtocol/messages/DestinationReachedMessage.o
                                                  ./src/robotProtocol/messages/CommunicationStopMessage.o
                                                  ./src/robotProtocol/messages/CommunicationStartMessage.o
                                                  ./src/robotProtocol/messages/CommunicationStartAcknowledgeMessage.o
                                                  ./src/robotProtocol/messages/CommandErrorMessage.o
                                                  ./src/robotProtocol/messages/CommandAcceptedMessage.o
__do_copy_data                                    /usr/lib/gcc/avr/4.5.3/avr5/libgcc.a(_copy_data.o)
                                                  /usr/lib/gcc/avr/4.5.3/../../../avr/lib/avr5/libc.a(random.o)
                                                  /usr/lib/gcc/avr/4.5.3/../../../avr/lib/avr5/libc.a(malloc.o)
                                                  /usr/lib/gcc/avr/4.5.3/avr5/libgcc.a(_clz.o)
                                                  /usr/lib/gcc/avr/4.5.3/avr5/libgcc.a(_thenan_sf.o)
                                                  ./src/DuinoBotKids.v1.xx_0022/wiring_analog.o
                                                  ./src/DuinoBotKids.v1.xx_0022/WString.o
                                                  ./src/DuinoBotKids.v1.xx_0022/VirtualSerial.o
                                                  ./src/DuinoBotKids.v1.xx_0022/Tone.o
                                                  ./src/DuinoBotKids.v1.xx_0022/Print.o
                                                  ./src/DuinoBotKids.v1.xx_0022/HardwareSerial.o
                                                  ./src/DuinoBotKids.v1.xx_0022/CDCSerial.o
                                                  ./src/DuinoBotKids.v1.xx_0022/LUFA/Drivers/USB/Class/Device/CDC.o
                                                  ./src/robotProtocol/SerialSenderReceiver.o
                                                  ./src/robotProtocol/N6.o
                                                  ./src/robotProtocol/MessageSender.o
                                                  ./src/robotProtocol/MessageReceiver.o
                                                  ./src/robotProtocol/MessageManager.o
                                                  ./src/robotProtocol/Message.o
                                                  ./src/robotProtocol/Command.o
                                                  ./src/robotProtocol/commands/TurnCommand.o
                                                  ./src/robotProtocol/commands/SetMotorSpeedCommand.o
                                                  ./src/robotProtocol/commands/SendKeepAliveCommand.o
                                                  ./src/robotProtocol/commands/ReadUSSensorCommand.o
                                                  ./src/robotProtocol/commands/ReadIRSensorsCommand.o
                                                  ./src/robotProtocol/commands/FollowLineCommand.o
                                                  ./src/robotProtocol/messages/TurnRightMessage.o
                                                  ./src/robotProtocol/messages/TurnLeftMessage.o
                                                  ./src/robotProtocol/messages/TurnAroundMessage.o
                                                  ./src/robotProtocol/messages/SetMotorSpeedMessage.o
                                                  ./src/robotProtocol/messages/RobotStatusMessage.o
                                                  ./src/robotProtocol/messages/RobotLostMessage.o
                                                  ./src/robotProtocol/messages/ReusableMessageProxy.o
                                                  ./src/robotProtocol/messages/ReadUSSensorReplyMessage.o
                                                  ./src/robotProtocol/messages/ReadUSSensorMessage.o
                                                  ./src/robotProtocol/messages/ReadIRSensorsReplyMessage.o
                                                  ./src/robotProtocol/messages/ReadIRSensorsMessage.o
                                                  ./src/robotProtocol/messages/KeepAliveMessage.o
                                                  ./src/robotProtocol/messages/FollowLineMessage.o
                                                  ./src/robotProtocol/messages/DestinationReachedMessage.o
                                                  ./src/robotProtocol/messages/CommunicationStopMessage.o
                                                  ./src/robotProtocol/messages/CommunicationStartMessage.o
                                                  ./src/robotProtocol/messages/CommunicationStartAcknowledgeMessage.o
                                                  ./src/robotProtocol/messages/CommandErrorMessage.o
                                                  ./src/robotProtocol/messages/CommandAcceptedMessage.o
__do_global_ctors                                 /usr/lib/gcc/avr/4.5.3/avr5/libgcc.a(_ctors.o)
                                                  ./src/main.o
                                                  ./src/DuinoBotKids.v1.xx_0022/WString.o
                                                  ./src/DuinoBotKids.v1.xx_0022/HardwareSerial.o
                                                  ./src/DuinoBotKids.v1.xx_0022/CDCSerial.o
                                                  ./src/DuinoBotKids.v1.xx_0022/DCMotor/DCMotor.o
                                                  ./src/robotProtocol/SerialSenderReceiver.o
                                                  ./src/robotProtocol/N6.o
                                                  ./src/robotProtocol/Command.o
                                                  ./src/robotProtocol/commands/TurnCommand.o
                                                  ./src/robotProtocol/commands/SetMotorSpeedCommand.o
                                                  ./src/robotProtocol/commands/SendKeepAliveCommand.o
                                                  ./src/robotProtocol/commands/ReadUSSensorCommand.o
                                                  ./src/robotProtocol/commands/ReadIRSensorsCommand.o
                                                  ./src/robotProtocol/commands/FollowLineCommand.o
                                                  ./src/robotProtocol/messages/TurnRightMessage.o
                                                  ./src/robotProtocol/messages/TurnLeftMessage.o
                                                  ./src/robotProtocol/messages/TurnAroundMessage.o
                                                  ./src/robotProtocol/messages/SetMotorSpeedMessage.o
                                                  ./src/robotProtocol/messages/RobotStatusMessage.o
                                                  ./src/robotProtocol/messages/RobotLostMessage.o
                                                  ./src/robotProtocol/messages/ReusableMessageProxy.o
                                                  ./src/robotProtocol/messages/ReadUSSensorReplyMessage.o
                                                  ./src/robotProtocol/messages/ReadUSSensorMessage.o
                                                  ./src/robotProtocol/messages/ReadIRSensorsReplyMessage.o
                                                  ./src/robotProtocol/messages/ReadIRSensorsMessage.o
                                                  ./src/robotProtocol/messages/KeepAliveMessage.o
                                                  ./src/robotProtocol/messages/FollowLineMessage.o
                                                  ./src/robotProtocol/messages/DestinationReachedMessage.o
                                                  ./src/robotProtocol/messages/CommunicationStopMessage.o
                                                  ./src/robotProtocol/messages/CommunicationStartMessage.o
                                                  ./src/robotProtocol/messages/CommunicationStartAcknowledgeMessage.o
                                                  ./src/robotProtocol/messages/CommandErrorMessage.o
                                                  ./src/robotProtocol/messages/CommandAcceptedMessage.o
__do_global_dtors                                 /usr/lib/gcc/avr/4.5.3/avr5/libgcc.a(_dtors.o)
                                                  ./src/robotProtocol/messages/TurnRightMessage.o
                                                  ./src/robotProtocol/messages/TurnLeftMessage.o
                                                  ./src/robotProtocol/messages/TurnAroundMessage.o
                                                  ./src/robotProtocol/messages/SetMotorSpeedMessage.o
                                                  ./src/robotProtocol/messages/RobotStatusMessage.o
                                                  ./src/robotProtocol/messages/RobotLostMessage.o
                                                  ./src/robotProtocol/messages/ReusableMessageProxy.o
                                                  ./src/robotProtocol/messages/ReadUSSensorReplyMessage.o
                                                  ./src/robotProtocol/messages/ReadUSSensorMessage.o
                                                  ./src/robotProtocol/messages/ReadIRSensorsReplyMessage.o
                                                  ./src/robotProtocol/messages/ReadIRSensorsMessage.o
                                                  ./src/robotProtocol/messages/KeepAliveMessage.o
                                                  ./src/robotProtocol/messages/FollowLineMessage.o
                                                  ./src/robotProtocol/messages/DestinationReachedMessage.o
                                                  ./src/robotProtocol/messages/CommunicationStopMessage.o
                                                  ./src/robotProtocol/messages/CommunicationStartMessage.o
                                                  ./src/robotProtocol/messages/CommunicationStartAcknowledgeMessage.o
                                                  ./src/robotProtocol/messages/CommandErrorMessage.o
                                                  ./src/robotProtocol/messages/CommandAcceptedMessage.o
__dtors_end                                       /usr/lib/gcc/avr/4.5.3/avr5/libgcc.a(_dtors.o)
__dtors_start                                     /usr/lib/gcc/avr/4.5.3/avr5/libgcc.a(_dtors.o)
__eerd_byte_m32u4                                 /usr/lib/gcc/avr/4.5.3/../../../avr/lib/avr5/libc.a(eerd_byte_atmega32u4.o)
                                                  ./src/DuinoBotKids.v1.xx_0022/LUFA/Drivers/USB/HighLevel/EndpointStream.o
__eeupd_byte_m32u4                                /usr/lib/gcc/avr/4.5.3/../../../avr/lib/avr5/libc.a(eeupd_byte_atmega32u4.o)
                                                  ./src/DuinoBotKids.v1.xx_0022/LUFA/Drivers/USB/HighLevel/EndpointStream.o
__eeupd_r18_m32u4                                 /usr/lib/gcc/avr/4.5.3/../../../avr/lib/avr5/libc.a(eeupd_byte_atmega32u4.o)
__epilogue_restores__                             /usr/lib/gcc/avr/4.5.3/avr5/libgcc.a(_epilogue.o)
                                                  /usr/lib/gcc/avr/4.5.3/../../../avr/lib/avr5/libc.a(vfprintf_std.o)
                                                  /usr/lib/gcc/avr/4.5.3/../../../avr/lib/avr5/libc.a(sprintf.o)
                                                  /usr/lib/gcc/avr/4.5.3/../../../avr/lib/avr5/libc.a(printf.o)
                                                  /usr/lib/gcc/avr/4.5.3/../../../avr/lib/avr5/libc.a(realloc.o)
                                                  /usr/lib/gcc/avr/4.5.3/../../../avr/lib/avr5/libc.a(random.o)
                                                  /usr/lib/gcc/avr/4.5.3/avr5/libgcc.a(_pack_sf.o)
                                                  /usr/lib/gcc/avr/4.5.3/avr5/libgcc.a(_usi_to_sf.o)
                                                  /usr/lib/gcc/avr/4.5.3/avr5/libgcc.a(_sf_to_si.o)
                                                  /usr/lib/gcc/avr/4.5.3/avr5/libgcc.a(_si_to_sf.o)
                                                  /usr/lib/gcc/avr/4.5.3/avr5/libgcc.a(_lt_sf.o)
                                                  /usr/lib/gcc/avr/4.5.3/avr5/libgcc.a(_ge_sf.o)
                                                  /usr/lib/gcc/avr/4.5.3/avr5/libgcc.a(_gt_sf.o)
                                                  /usr/lib/gcc/avr/4.5.3/avr5/libgcc.a(_div_sf.o)
                                                  /usr/lib/gcc/avr/4.5.3/avr5/libgcc.a(_mul_sf.o)
                                                  /usr/lib/gcc/avr/4.5.3/avr5/libgcc.a(_addsub_sf.o)
__fixsfsi                                         /usr/lib/gcc/avr/4.5.3/avr5/libgcc.a(_sf_to_si.o)
                                                  /usr/lib/gcc/avr/4.5.3/avr5/libgcc.a(_fixunssfsi.o)
                                                  ./src/DuinoBotKids.v1.xx_0022/Print.o
                                                  ./src/DuinoBotKids.v1.xx_0022/DCMotor/DCMotor.o
                                                  ./src/robotProtocol/N6.o
__fixunssfsi                                      /usr/lib/gcc/avr/4.5.3/avr5/libgcc.a(_fixunssfsi.o)
                                                  ./src/DuinoBotKids.v1.xx_0022/Print.o
__floatsisf                                       /usr/lib/gcc/avr/4.5.3/avr5/libgcc.a(_si_to_sf.o)
                                                  ./src/DuinoBotKids.v1.xx_0022/Print.o
                                                  ./src/robotProtocol/N6.o
                                                  ./src/robotProtocol/commands/TurnCommand.o
                                                  ./src/robotProtocol/commands/SetMotorSpeedCommand.o
                                                  ./src/robotProtocol/commands/FollowLineCommand.o
__floatunsisf                                     /usr/lib/gcc/avr/4.5.3/avr5/libgcc.a(_usi_to_sf.o)
                                                  ./src/DuinoBotKids.v1.xx_0022/Print.o
__flp                                             /usr/lib/gcc/avr/4.5.3/../../../avr/lib/avr5/libc.a(realloc.o)
                                                  /usr/lib/gcc/avr/4.5.3/../../../avr/lib/avr5/libc.a(malloc.o)
__fpcmp_parts_f                                   /usr/lib/gcc/avr/4.5.3/avr5/libgcc.a(_fpcmp_parts_sf.o)
                                                  /usr/lib/gcc/avr/4.5.3/avr5/libgcc.a(_lt_sf.o)
                                                  /usr/lib/gcc/avr/4.5.3/avr5/libgcc.a(_ge_sf.o)
                                                  /usr/lib/gcc/avr/4.5.3/avr5/libgcc.a(_gt_sf.o)
__gesf2                                           /usr/lib/gcc/avr/4.5.3/avr5/libgcc.a(_ge_sf.o)
                                                  /usr/lib/gcc/avr/4.5.3/avr5/libgcc.a(_fixunssfsi.o)
__gtsf2                                           /usr/lib/gcc/avr/4.5.3/avr5/libgcc.a(_gt_sf.o)
                                                  ./src/DuinoBotKids.v1.xx_0022/DCMotor/DCMotor.o
                                                  ./src/robotProtocol/N6.o
__heap_end                                        /usr/lib/gcc/avr/4.5.3/../../../avr/lib/avr5/crtm32u4.o
                                                  /usr/lib/gcc/avr/4.5.3/../../../avr/lib/avr5/libc.a(malloc.o)
__heap_start                                      /usr/lib/gcc/avr/4.5.3/../../../avr/lib/avr5/libc.a(malloc.o)
__init                                            /usr/lib/gcc/avr/4.5.3/../../../avr/lib/avr5/crtm32u4.o
__iob                                             /usr/lib/gcc/avr/4.5.3/../../../avr/lib/avr5/libc.a(iob.o)
                                                  /usr/lib/gcc/avr/4.5.3/../../../avr/lib/avr5/libc.a(printf.o)
__ltsf2                                           /usr/lib/gcc/avr/4.5.3/avr5/libgcc.a(_lt_sf.o)
                                                  ./src/DuinoBotKids.v1.xx_0022/Print.o
                                                  ./src/DuinoBotKids.v1.xx_0022/DCMotor/DCMotor.o
                                                  ./src/robotProtocol/N6.o
__malloc_heap_end                                 /usr/lib/gcc/avr/4.5.3/../../../avr/lib/avr5/libc.a(malloc.o)
                                                  /usr/lib/gcc/avr/4.5.3/../../../avr/lib/avr5/libc.a(realloc.o)
__malloc_heap_start                               /usr/lib/gcc/avr/4.5.3/../../../avr/lib/avr5/libc.a(malloc.o)
__malloc_margin                                   /usr/lib/gcc/avr/4.5.3/../../../avr/lib/avr5/libc.a(malloc.o)
                                                  /usr/lib/gcc/avr/4.5.3/../../../avr/lib/avr5/libc.a(realloc.o)
__mulsf3                                          /usr/lib/gcc/avr/4.5.3/avr5/libgcc.a(_mul_sf.o)
                                                  ./src/DuinoBotKids.v1.xx_0022/Print.o
                                                  ./src/DuinoBotKids.v1.xx_0022/DCMotor/DCMotor.o
__mulsi3                                          /usr/lib/gcc/avr/4.5.3/avr5/libgcc.a(_mulsi3.o)
                                                  /usr/lib/gcc/avr/4.5.3/../../../avr/lib/avr5/libc.a(strtol.o)
                                                  /usr/lib/gcc/avr/4.5.3/../../../avr/lib/avr5/libc.a(random.o)
                                                  ./src/DuinoBotKids.v1.xx_0022/wiring_pulse.o
                                                  ./src/DuinoBotKids.v1.xx_0022/WMath.o
                                                  ./src/DuinoBotKids.v1.xx_0022/Tone.o
__mulsi_const_10                                  /usr/lib/gcc/avr/4.5.3/../../../avr/lib/avr5/libc.a(mulsi10.o)
                                                  /usr/lib/gcc/avr/4.5.3/../../../avr/lib/avr5/libc.a(atol.o)
__pack_f                                          /usr/lib/gcc/avr/4.5.3/avr5/libgcc.a(_pack_sf.o)
                                                  /usr/lib/gcc/avr/4.5.3/avr5/libgcc.a(_usi_to_sf.o)
                                                  /usr/lib/gcc/avr/4.5.3/avr5/libgcc.a(_si_to_sf.o)
                                                  /usr/lib/gcc/avr/4.5.3/avr5/libgcc.a(_div_sf.o)
                                                  /usr/lib/gcc/avr/4.5.3/avr5/libgcc.a(_mul_sf.o)
                                                  /usr/lib/gcc/avr/4.5.3/avr5/libgcc.a(_addsub_sf.o)
__prologue_saves__                                /usr/lib/gcc/avr/4.5.3/avr5/libgcc.a(_prologue.o)
                                                  /usr/lib/gcc/avr/4.5.3/../../../avr/lib/avr5/libc.a(vfprintf_std.o)
                                                  /usr/lib/gcc/avr/4.5.3/../../../avr/lib/avr5/libc.a(sprintf.o)
                                                  /usr/lib/gcc/avr/4.5.3/../../../avr/lib/avr5/libc.a(printf.o)
                                                  /usr/lib/gcc/avr/4.5.3/../../../avr/lib/avr5/libc.a(realloc.o)
                                                  /usr/lib/gcc/avr/4.5.3/../../../avr/lib/avr5/libc.a(random.o)
                                                  /usr/lib/gcc/avr/4.5.3/avr5/libgcc.a(_usi_to_sf.o)
                                                  /usr/lib/gcc/avr/4.5.3/avr5/libgcc.a(_sf_to_si.o)
                                                  /usr/lib/gcc/avr/4.5.3/avr5/libgcc.a(_si_to_sf.o)
                                                  /usr/lib/gcc/avr/4.5.3/avr5/libgcc.a(_lt_sf.o)
                                                  /usr/lib/gcc/avr/4.5.3/avr5/libgcc.a(_ge_sf.o)
                                                  /usr/lib/gcc/avr/4.5.3/avr5/libgcc.a(_gt_sf.o)
                                                  /usr/lib/gcc/avr/4.5.3/avr5/libgcc.a(_div_sf.o)
                                                  /usr/lib/gcc/avr/4.5.3/avr5/libgcc.a(_mul_sf.o)
                                                  /usr/lib/gcc/avr/4.5.3/avr5/libgcc.a(_addsub_sf.o)
__stack                                           /usr/lib/gcc/avr/4.5.3/../../../avr/lib/avr5/crtm32u4.o
__subsf3                                          /usr/lib/gcc/avr/4.5.3/avr5/libgcc.a(_addsub_sf.o)
                                                  /usr/lib/gcc/avr/4.5.3/avr5/libgcc.a(_fixunssfsi.o)
                                                  ./src/DuinoBotKids.v1.xx_0022/Print.o
__tablejump2__                                    /usr/lib/gcc/avr/4.5.3/avr5/libgcc.a(_tablejump.o)
__tablejump__                                     /usr/lib/gcc/avr/4.5.3/avr5/libgcc.a(_tablejump.o)
                                                  /usr/lib/gcc/avr/4.5.3/avr5/libgcc.a(_dtors.o)
                                                  /usr/lib/gcc/avr/4.5.3/avr5/libgcc.a(_ctors.o)
__thenan_sf                                       /usr/lib/gcc/avr/4.5.3/avr5/libgcc.a(_thenan_sf.o)
                                                  /usr/lib/gcc/avr/4.5.3/avr5/libgcc.a(_div_sf.o)
                                                  /usr/lib/gcc/avr/4.5.3/avr5/libgcc.a(_mul_sf.o)
                                                  /usr/lib/gcc/avr/4.5.3/avr5/libgcc.a(_addsub_sf.o)
__udivmodhi4                                      /usr/lib/gcc/avr/4.5.3/avr5/libgcc.a(_udivmodhi4.o)
                                                  /usr/lib/gcc/avr/4.5.3/../../../avr/lib/avr5/libc.a(itoa.o)
                                                  /usr/lib/gcc/avr/4.5.3/avr5/libgcc.a(_divmodhi4.o)
__udivmodsi4                                      /usr/lib/gcc/avr/4.5.3/avr5/libgcc.a(_udivmodsi4.o)
                                                  /usr/lib/gcc/avr/4.5.3/../../../avr/lib/avr5/libc.a(ultoa.o)
                                                  /usr/lib/gcc/avr/4.5.3/../../../avr/lib/avr5/libc.a(ltoa.o)
                                                  /usr/lib/gcc/avr/4.5.3/../../../avr/lib/avr5/libc.a(strtol.o)
                                                  /usr/lib/gcc/avr/4.5.3/avr5/libgcc.a(_divmodsi4.o)
                                                  ./src/DuinoBotKids.v1.xx_0022/wiring_pulse.o
                                                  ./src/DuinoBotKids.v1.xx_0022/Tone.o
                                                  ./src/DuinoBotKids.v1.xx_0022/Print.o
                                                  ./src/DuinoBotKids.v1.xx_0022/HardwareSerial.o
                                                  ./src/robotProtocol/N6.o
__ultoa_invert                                    /usr/lib/gcc/avr/4.5.3/../../../avr/lib/avr5/libc.a(ultoa_invert.o)
                                                  /usr/lib/gcc/avr/4.5.3/../../../avr/lib/avr5/libc.a(vfprintf_std.o)
__unpack_f                                        /usr/lib/gcc/avr/4.5.3/avr5/libgcc.a(_unpack_sf.o)
                                                  /usr/lib/gcc/avr/4.5.3/avr5/libgcc.a(_sf_to_si.o)
                                                  /usr/lib/gcc/avr/4.5.3/avr5/libgcc.a(_lt_sf.o)
                                                  /usr/lib/gcc/avr/4.5.3/avr5/libgcc.a(_ge_sf.o)
                                                  /usr/lib/gcc/avr/4.5.3/avr5/libgcc.a(_gt_sf.o)
                                                  /usr/lib/gcc/avr/4.5.3/avr5/libgcc.a(_div_sf.o)
                                                  /usr/lib/gcc/avr/4.5.3/avr5/libgcc.a(_mul_sf.o)
                                                  /usr/lib/gcc/avr/4.5.3/avr5/libgcc.a(_addsub_sf.o)
__vector_1                                        ./src/DuinoBotKids.v1.xx_0022/WInterrupts.o
                                                  /usr/lib/gcc/avr/4.5.3/../../../avr/lib/avr5/crtm32u4.o
__vector_10                                       ./src/DuinoBotKids.v1.xx_0022/LUFA/Drivers/USB/LowLevel/USBInterrupt.o
                                                  /usr/lib/gcc/avr/4.5.3/../../../avr/lib/avr5/crtm32u4.o
__vector_11                                       /usr/lib/gcc/avr/4.5.3/../../../avr/lib/avr5/crtm32u4.o
__vector_12                                       ./src/DuinoBotKids.v1.xx_0022/VirtualSerial.o
                                                  /usr/lib/gcc/avr/4.5.3/../../../avr/lib/avr5/crtm32u4.o
__vector_13                                       /usr/lib/gcc/avr/4.5.3/../../../avr/lib/avr5/crtm32u4.o
__vector_14                                       /usr/lib/gcc/avr/4.5.3/../../../avr/lib/avr5/crtm32u4.o
__vector_15                                       /usr/lib/gcc/avr/4.5.3/../../../avr/lib/avr5/crtm32u4.o
__vector_16                                       /usr/lib/gcc/avr/4.5.3/../../../avr/lib/avr5/crtm32u4.o
__vector_17                                       ./src/DuinoBotKids.v1.xx_0022/Tone.o
                                                  /usr/lib/gcc/avr/4.5.3/../../../avr/lib/avr5/crtm32u4.o
__vector_18                                       /usr/lib/gcc/avr/4.5.3/../../../avr/lib/avr5/crtm32u4.o
__vector_19                                       /usr/lib/gcc/avr/4.5.3/../../../avr/lib/avr5/crtm32u4.o
__vector_2                                        ./src/DuinoBotKids.v1.xx_0022/WInterrupts.o
                                                  /usr/lib/gcc/avr/4.5.3/../../../avr/lib/avr5/crtm32u4.o
__vector_20                                       /usr/lib/gcc/avr/4.5.3/../../../avr/lib/avr5/crtm32u4.o
__vector_21                                       ./src/DuinoBotKids.v1.xx_0022/Tone.o
                                                  /usr/lib/gcc/avr/4.5.3/../../../avr/lib/avr5/crtm32u4.o
__vector_22                                       /usr/lib/gcc/avr/4.5.3/../../../avr/lib/avr5/crtm32u4.o
__vector_23                                       ./src/DuinoBotKids.v1.xx_0022/wiring.o
                                                  /usr/lib/gcc/avr/4.5.3/../../../avr/lib/avr5/crtm32u4.o
__vector_24                                       /usr/lib/gcc/avr/4.5.3/../../../avr/lib/avr5/crtm32u4.o
__vector_25                                       ./src/DuinoBotKids.v1.xx_0022/HardwareSerial.o
                                                  /usr/lib/gcc/avr/4.5.3/../../../avr/lib/avr5/crtm32u4.o
__vector_26                                       /usr/lib/gcc/avr/4.5.3/../../../avr/lib/avr5/crtm32u4.o
__vector_27                                       /usr/lib/gcc/avr/4.5.3/../../../avr/lib/avr5/crtm32u4.o
__vector_28                                       /usr/lib/gcc/avr/4.5.3/../../../avr/lib/avr5/crtm32u4.o
__vector_29                                       /usr/lib/gcc/avr/4.5.3/../../../avr/lib/avr5/crtm32u4.o
__vector_3                                        ./src/DuinoBotKids.v1.xx_0022/WInterrupts.o
                                                  /usr/lib/gcc/avr/4.5.3/../../../avr/lib/avr5/crtm32u4.o
__vector_30                                       /usr/lib/gcc/avr/4.5.3/../../../avr/lib/avr5/crtm32u4.o
__vector_31                                       /usr/lib/gcc/avr/4.5.3/../../../avr/lib/avr5/crtm32u4.o
__vector_32                                       /usr/lib/gcc/avr/4.5.3/../../../avr/lib/avr5/crtm32u4.o
__vector_33                                       /usr/lib/gcc/avr/4.5.3/../../../avr/lib/avr5/crtm32u4.o
__vector_34                                       /usr/lib/gcc/avr/4.5.3/../../../avr/lib/avr5/crtm32u4.o
__vector_35                                       /usr/lib/gcc/avr/4.5.3/../../../avr/lib/avr5/crtm32u4.o
__vector_36                                       /usr/lib/gcc/avr/4.5.3/../../../avr/lib/avr5/crtm32u4.o
__vector_37                                       /usr/lib/gcc/avr/4.5.3/../../../avr/lib/avr5/crtm32u4.o
__vector_38                                       /usr/lib/gcc/avr/4.5.3/../../../avr/lib/avr5/crtm32u4.o
__vector_39                                       /usr/lib/gcc/avr/4.5.3/../../../avr/lib/avr5/crtm32u4.o
__vector_4                                        ./src/DuinoBotKids.v1.xx_0022/WInterrupts.o
                                                  /usr/lib/gcc/avr/4.5.3/../../../avr/lib/avr5/crtm32u4.o
__vector_40                                       /usr/lib/gcc/avr/4.5.3/../../../avr/lib/avr5/crtm32u4.o
__vector_41                                       /usr/lib/gcc/avr/4.5.3/../../../avr/lib/avr5/crtm32u4.o
__vector_42                                       /usr/lib/gcc/avr/4.5.3/../../../avr/lib/avr5/crtm32u4.o
__vector_5                                        /usr/lib/gcc/avr/4.5.3/../../../avr/lib/avr5/crtm32u4.o
__vector_6                                        /usr/lib/gcc/avr/4.5.3/../../../avr/lib/avr5/crtm32u4.o
__vector_7                                        /usr/lib/gcc/avr/4.5.3/../../../avr/lib/avr5/crtm32u4.o
__vector_8                                        /usr/lib/gcc/avr/4.5.3/../../../avr/lib/avr5/crtm32u4.o
__vector_9                                        /usr/lib/gcc/avr/4.5.3/../../../avr/lib/avr5/crtm32u4.o
__vector_default                                  /usr/lib/gcc/avr/4.5.3/../../../avr/lib/avr5/crtm32u4.o
__vectors                                         /usr/lib/gcc/avr/4.5.3/../../../avr/lib/avr5/crtm32u4.o
_div                                              /usr/lib/gcc/avr/4.5.3/avr5/libgcc.a(_divmodhi4.o)
_exit                                             /usr/lib/gcc/avr/4.5.3/avr5/libgcc.a(_exit.o)
analogRead                                        ./src/DuinoBotKids.v1.xx_0022/wiring_analog.o
                                                  ./src/robotProtocol/N6.o
analogReference                                   ./src/DuinoBotKids.v1.xx_0022/wiring_analog.o
analogWrite                                       ./src/DuinoBotKids.v1.xx_0022/wiring_analog.o
                                                  ./src/DuinoBotKids.v1.xx_0022/DCMotor/DCMotor.o
analog_channel_to_adc_mux_PGM                     ./src/DuinoBotKids.v1.xx_0022/pins_arduino.o
                                                  ./src/DuinoBotKids.v1.xx_0022/wiring_analog.o
analog_pin_to_adc_channel_PGM                     ./src/DuinoBotKids.v1.xx_0022/pins_arduino.o
                                                  ./src/DuinoBotKids.v1.xx_0022/wiring_analog.o
analog_reference                                  ./src/DuinoBotKids.v1.xx_0022/wiring_analog.o
atol                                              /usr/lib/gcc/avr/4.5.3/../../../avr/lib/avr5/libc.a(atol.o)
                                                  ./src/DuinoBotKids.v1.xx_0022/WString.o
attachInterrupt                                   ./src/DuinoBotKids.v1.xx_0022/WInterrupts.o
delay                                             ./src/DuinoBotKids.v1.xx_0022/wiring.o
                                                  ./src/main.o
                                                  ./src/robotProtocol/SerialSenderReceiver.o
                                                  ./src/robotProtocol/N6.o
delayMicroseconds                                 ./src/DuinoBotKids.v1.xx_0022/wiring.o
                                                  ./src/robotProtocol/N6.o
detachInterrupt                                   ./src/DuinoBotKids.v1.xx_0022/WInterrupts.o
digitalRead                                       ./src/DuinoBotKids.v1.xx_0022/wiring_digital.o
                                                  ./src/DuinoBotKids.v1.xx_0022/wiring_shift.o
digitalWrite                                      ./src/DuinoBotKids.v1.xx_0022/wiring_digital.o
                                                  ./src/DuinoBotKids.v1.xx_0022/wiring_shift.o
                                                  ./src/DuinoBotKids.v1.xx_0022/wiring_analog.o
                                                  ./src/DuinoBotKids.v1.xx_0022/Tone.o
                                                  ./src/DuinoBotKids.v1.xx_0022/DCMotor/DCMotor.o
                                                  ./src/robotProtocol/N6.o
digital_pin_to_bit_mask_PGM                       ./src/DuinoBotKids.v1.xx_0022/pins_arduino.o
                                                  ./src/DuinoBotKids.v1.xx_0022/wiring_pulse.o
                                                  ./src/DuinoBotKids.v1.xx_0022/wiring_digital.o
                                                  ./src/DuinoBotKids.v1.xx_0022/Tone.o
digital_pin_to_port_PGM                           ./src/DuinoBotKids.v1.xx_0022/pins_arduino.o
                                                  ./src/DuinoBotKids.v1.xx_0022/wiring_pulse.o
                                                  ./src/DuinoBotKids.v1.xx_0022/wiring_digital.o
                                                  ./src/DuinoBotKids.v1.xx_0022/Tone.o
digital_pin_to_timer_PGM                          ./src/DuinoBotKids.v1.xx_0022/pins_arduino.o
                                                  ./src/DuinoBotKids.v1.xx_0022/wiring_digital.o
                                                  ./src/DuinoBotKids.v1.xx_0022/wiring_analog.o
disableTimer(unsigned char)                       ./src/DuinoBotKids.v1.xx_0022/Tone.o
errno                                             /usr/lib/gcc/avr/4.5.3/../../../avr/lib/avr5/libc.a(errno.o)
                                                  /usr/lib/gcc/avr/4.5.3/../../../avr/lib/avr5/libc.a(strtol.o)
exit                                              /usr/lib/gcc/avr/4.5.3/avr5/libgcc.a(_exit.o)
                                                  /usr/lib/gcc/avr/4.5.3/../../../avr/lib/avr5/crtm32u4.o
fputc                                             /usr/lib/gcc/avr/4.5.3/../../../avr/lib/avr5/libc.a(fputc.o)
                                                  /usr/lib/gcc/avr/4.5.3/../../../avr/lib/avr5/libc.a(vfprintf_std.o)
free                                              /usr/lib/gcc/avr/4.5.3/../../../avr/lib/avr5/libc.a(malloc.o)
                                                  /usr/lib/gcc/avr/4.5.3/../../../avr/lib/avr5/libc.a(realloc.o)
                                                  ./src/DuinoBotKids.v1.xx_0022/WString.o
                                                  ./src/DuinoBotKids.v1.xx_0022/CPPLib.o
init                                              ./src/DuinoBotKids.v1.xx_0022/wiring.o
                                                  ./src/robotProtocol/N6.o
isspace                                           /usr/lib/gcc/avr/4.5.3/../../../avr/lib/avr5/libc.a(isspace.o)
                                                  /usr/lib/gcc/avr/4.5.3/../../../avr/lib/avr5/libc.a(strtol.o)
                                                  ./src/DuinoBotKids.v1.xx_0022/WString.o
itoa                                              /usr/lib/gcc/avr/4.5.3/../../../avr/lib/avr5/libc.a(itoa.o)
                                                  ./src/DuinoBotKids.v1.xx_0022/WString.o
ltoa                                              /usr/lib/gcc/avr/4.5.3/../../../avr/lib/avr5/libc.a(ltoa.o)
                                                  ./src/DuinoBotKids.v1.xx_0022/WString.o
main                                              ./src/main.o
                                                  /usr/lib/gcc/avr/4.5.3/../../../avr/lib/avr5/crtm32u4.o
makeWord(unsigned char, unsigned char)            ./src/DuinoBotKids.v1.xx_0022/WMath.o
makeWord(unsigned int)                            ./src/DuinoBotKids.v1.xx_0022/WMath.o
malloc                                            /usr/lib/gcc/avr/4.5.3/../../../avr/lib/avr5/libc.a(malloc.o)
                                                  /usr/lib/gcc/avr/4.5.3/../../../avr/lib/avr5/libc.a(realloc.o)
                                                  ./src/DuinoBotKids.v1.xx_0022/WString.o
                                                  ./src/DuinoBotKids.v1.xx_0022/CPPLib.o
map(long, long, long, long, long)                 ./src/DuinoBotKids.v1.xx_0022/WMath.o
memcpy                                            /usr/lib/gcc/avr/4.5.3/../../../avr/lib/avr5/libc.a(memcpy.o)
                                                  /usr/lib/gcc/avr/4.5.3/../../../avr/lib/avr5/libc.a(realloc.o)
micros                                            ./src/DuinoBotKids.v1.xx_0022/wiring.o
millis                                            ./src/DuinoBotKids.v1.xx_0022/wiring.o
motor0                                            ./src/DuinoBotKids.v1.xx_0022/DCMotor/DCMotor.o
                                                  ./src/robotProtocol/N6.o
motor1                                            ./src/DuinoBotKids.v1.xx_0022/DCMotor/DCMotor.o
                                                  ./src/robotProtocol/N6.o
noTone(unsigned char)                             ./src/DuinoBotKids.v1.xx_0022/Tone.o
non-virtual thunk to RobotProtocol::SerialSenderReceiver::getNextMessage(char*, int&) ./src/robotProtocol/SerialSenderReceiver.o
non-virtual thunk to RobotProtocol::SerialSenderReceiver::hasPendingMessage() ./src/robotProtocol/SerialSenderReceiver.o
non-virtual thunk to RobotProtocol::SerialSenderReceiver::~SerialSenderReceiver() ./src/robotProtocol/SerialSenderReceiver.o
non-virtual thunk to RobotProtocol::SerialSenderReceiver::~SerialSenderReceiver() ./src/robotProtocol/SerialSenderReceiver.o
operator delete(void*)                            ./src/DuinoBotKids.v1.xx_0022/CPPLib.o
                                                  ./src/robotProtocol/SerialSenderReceiver.o
                                                  ./src/robotProtocol/N6.o
                                                  ./src/robotProtocol/MessageSender.o
                                                  ./src/robotProtocol/MessageReceiver.o
                                                  ./src/robotProtocol/MessageManager.o
                                                  ./src/robotProtocol/Message.o
                                                  ./src/robotProtocol/Command.o
                                                  ./src/robotProtocol/commands/TurnCommand.o
                                                  ./src/robotProtocol/commands/SetMotorSpeedCommand.o
                                                  ./src/robotProtocol/commands/SendKeepAliveCommand.o
                                                  ./src/robotProtocol/commands/ReadUSSensorCommand.o
                                                  ./src/robotProtocol/commands/ReadIRSensorsCommand.o
                                                  ./src/robotProtocol/commands/FollowLineCommand.o
                                                  ./src/robotProtocol/messages/TurnRightMessage.o
                                                  ./src/robotProtocol/messages/TurnLeftMessage.o
                                                  ./src/robotProtocol/messages/TurnAroundMessage.o
                                                  ./src/robotProtocol/messages/SetMotorSpeedMessage.o
                                                  ./src/robotProtocol/messages/RobotStatusMessage.o
                                                  ./src/robotProtocol/messages/RobotLostMessage.o
                                                  ./src/robotProtocol/messages/ReusableMessageProxy.o
                                                  ./src/robotProtocol/messages/ReadUSSensorReplyMessage.o
                                                  ./src/robotProtocol/messages/ReadUSSensorMessage.o
                                                  ./src/robotProtocol/messages/ReadIRSensorsReplyMessage.o
                                                  ./src/robotProtocol/messages/ReadIRSensorsMessage.o
                                                  ./src/robotProtocol/messages/KeepAliveMessage.o
                                                  ./src/robotProtocol/messages/FollowLineMessage.o
                                                  ./src/robotProtocol/messages/DestinationReachedMessage.o
                                                  ./src/robotProtocol/messages/CommunicationStopMessage.o
                                                  ./src/robotProtocol/messages/CommunicationStartMessage.o
                                                  ./src/robotProtocol/messages/CommunicationStartAcknowledgeMessage.o
                                                  ./src/robotProtocol/messages/CommandErrorMessage.o
                                                  ./src/robotProtocol/messages/CommandAcceptedMessage.o
operator delete[](void*)                          ./src/DuinoBotKids.v1.xx_0022/CPPLib.o
operator new(unsigned int)                        ./src/DuinoBotKids.v1.xx_0022/CPPLib.o
operator new[](unsigned int)                      ./src/DuinoBotKids.v1.xx_0022/CPPLib.o
pinMode                                           ./src/DuinoBotKids.v1.xx_0022/wiring_digital.o
                                                  ./src/DuinoBotKids.v1.xx_0022/wiring_analog.o
                                                  ./src/DuinoBotKids.v1.xx_0022/Tone.o
                                                  ./src/DuinoBotKids.v1.xx_0022/DCMotor/DCMotor.o
                                                  ./src/robotProtocol/N6.o
port_to_input_PGM                                 ./src/DuinoBotKids.v1.xx_0022/pins_arduino.o
                                                  ./src/DuinoBotKids.v1.xx_0022/wiring_pulse.o
                                                  ./src/DuinoBotKids.v1.xx_0022/wiring_digital.o
port_to_mode_PGM                                  ./src/DuinoBotKids.v1.xx_0022/pins_arduino.o
                                                  ./src/DuinoBotKids.v1.xx_0022/wiring_digital.o
port_to_output_PGM                                ./src/DuinoBotKids.v1.xx_0022/pins_arduino.o
                                                  ./src/DuinoBotKids.v1.xx_0022/wiring_digital.o
                                                  ./src/DuinoBotKids.v1.xx_0022/Tone.o
printf                                            /usr/lib/gcc/avr/4.5.3/../../../avr/lib/avr5/libc.a(printf.o)
                                                  ./src/robotProtocol/N6.o
                                                  ./src/robotProtocol/MessageManager.o
pulseIn                                           ./src/DuinoBotKids.v1.xx_0022/wiring_pulse.o
                                                  ./src/robotProtocol/N6.o
random                                            /usr/lib/gcc/avr/4.5.3/../../../avr/lib/avr5/libc.a(random.o)
                                                  ./src/DuinoBotKids.v1.xx_0022/WMath.o
random(long)                                      ./src/DuinoBotKids.v1.xx_0022/WMath.o
random(long, long)                                ./src/DuinoBotKids.v1.xx_0022/WMath.o
randomSeed(unsigned int)                          ./src/DuinoBotKids.v1.xx_0022/WMath.o
random_r                                          /usr/lib/gcc/avr/4.5.3/../../../avr/lib/avr5/libc.a(random.o)
realloc                                           /usr/lib/gcc/avr/4.5.3/../../../avr/lib/avr5/libc.a(realloc.o)
                                                  ./src/DuinoBotKids.v1.xx_0022/WString.o
rx_buffer1                                        ./src/DuinoBotKids.v1.xx_0022/HardwareSerial.o
rx_buffer_cdc                                     ./src/DuinoBotKids.v1.xx_0022/CDCSerial.o
setupProgram(RobotProtocol::MessageManager*)      ./src/main.o
shiftIn                                           ./src/DuinoBotKids.v1.xx_0022/wiring_shift.o
shiftOut                                          ./src/DuinoBotKids.v1.xx_0022/wiring_shift.o
sprintf                                           /usr/lib/gcc/avr/4.5.3/../../../avr/lib/avr5/libc.a(sprintf.o)
                                                  ./src/robotProtocol/Message.o
                                                  ./src/robotProtocol/messages/SetMotorSpeedMessage.o
                                                  ./src/robotProtocol/messages/RobotStatusMessage.o
                                                  ./src/robotProtocol/messages/ReadUSSensorReplyMessage.o
                                                  ./src/robotProtocol/messages/ReadIRSensorsReplyMessage.o
                                                  ./src/robotProtocol/messages/KeepAliveMessage.o
                                                  ./src/robotProtocol/messages/CommandErrorMessage.o
                                                  ./src/robotProtocol/messages/CommandAcceptedMessage.o
srandom                                           /usr/lib/gcc/avr/4.5.3/../../../avr/lib/avr5/libc.a(random.o)
                                                  ./src/DuinoBotKids.v1.xx_0022/WMath.o
store_char(unsigned char, ring_buffer*)           ./src/DuinoBotKids.v1.xx_0022/CDCSerial.o
strcat                                            /usr/lib/gcc/avr/4.5.3/../../../avr/lib/avr5/libc.a(strcat.o)
                                                  ./src/DuinoBotKids.v1.xx_0022/WString.o
strchr                                            /usr/lib/gcc/avr/4.5.3/../../../avr/lib/avr5/libc.a(strchr.o)
                                                  ./src/DuinoBotKids.v1.xx_0022/WString.o
strcmp                                            /usr/lib/gcc/avr/4.5.3/../../../avr/lib/avr5/libc.a(strcmp.o)
                                                  ./src/DuinoBotKids.v1.xx_0022/WString.o
strcpy                                            /usr/lib/gcc/avr/4.5.3/../../../avr/lib/avr5/libc.a(strcpy.o)
                                                  ./src/DuinoBotKids.v1.xx_0022/WString.o
strncmp                                           /usr/lib/gcc/avr/4.5.3/../../../avr/lib/avr5/libc.a(strncmp.o)
                                                  ./src/DuinoBotKids.v1.xx_0022/WString.o
strncpy                                           /usr/lib/gcc/avr/4.5.3/../../../avr/lib/avr5/libc.a(strncpy.o)
                                                  ./src/DuinoBotKids.v1.xx_0022/WString.o
strnlen                                           /usr/lib/gcc/avr/4.5.3/../../../avr/lib/avr5/libc.a(strnlen.o)
                                                  /usr/lib/gcc/avr/4.5.3/../../../avr/lib/avr5/libc.a(vfprintf_std.o)
strnlen_P                                         /usr/lib/gcc/avr/4.5.3/../../../avr/lib/avr5/libc.a(strnlen_P.o)
                                                  /usr/lib/gcc/avr/4.5.3/../../../avr/lib/avr5/libc.a(vfprintf_std.o)
strrchr                                           /usr/lib/gcc/avr/4.5.3/../../../avr/lib/avr5/libc.a(strrchr.o)
                                                  ./src/DuinoBotKids.v1.xx_0022/WString.o
strrev                                            /usr/lib/gcc/avr/4.5.3/../../../avr/lib/avr5/libc.a(strrev.o)
                                                  /usr/lib/gcc/avr/4.5.3/../../../avr/lib/avr5/libc.a(ultoa.o)
                                                  /usr/lib/gcc/avr/4.5.3/../../../avr/lib/avr5/libc.a(ltoa.o)
                                                  /usr/lib/gcc/avr/4.5.3/../../../avr/lib/avr5/libc.a(itoa.o)
strstr                                            /usr/lib/gcc/avr/4.5.3/../../../avr/lib/avr5/libc.a(strstr.o)
                                                  ./src/DuinoBotKids.v1.xx_0022/WString.o
strtol                                            /usr/lib/gcc/avr/4.5.3/../../../avr/lib/avr5/libc.a(strtol.o)
                                                  ./src/robotProtocol/SerialSenderReceiver.o
                                                  ./src/robotProtocol/MessageManager.o
                                                  ./src/robotProtocol/Message.o
                                                  ./src/robotProtocol/messages/SetMotorSpeedMessage.o
                                                  ./src/robotProtocol/messages/RobotStatusMessage.o
                                                  ./src/robotProtocol/messages/ReadUSSensorReplyMessage.o
                                                  ./src/robotProtocol/messages/ReadIRSensorsReplyMessage.o
                                                  ./src/robotProtocol/messages/KeepAliveMessage.o
                                                  ./src/robotProtocol/messages/CommandErrorMessage.o
                                                  ./src/robotProtocol/messages/CommandAcceptedMessage.o
timer0_millis                                     ./src/DuinoBotKids.v1.xx_0022/wiring.o
timer0_overflow_count                             ./src/DuinoBotKids.v1.xx_0022/wiring.o
timer0_pin_mask                                   ./src/DuinoBotKids.v1.xx_0022/Tone.o
timer0_pin_port                                   ./src/DuinoBotKids.v1.xx_0022/Tone.o
timer0_toggle_count                               ./src/DuinoBotKids.v1.xx_0022/Tone.o
timer1_pin_mask                                   ./src/DuinoBotKids.v1.xx_0022/Tone.o
timer1_pin_port                                   ./src/DuinoBotKids.v1.xx_0022/Tone.o
timer1_toggle_count                               ./src/DuinoBotKids.v1.xx_0022/Tone.o
timer2_pin_mask                                   ./src/DuinoBotKids.v1.xx_0022/Tone.o
timer2_pin_port                                   ./src/DuinoBotKids.v1.xx_0022/Tone.o
timer2_toggle_count                               ./src/DuinoBotKids.v1.xx_0022/Tone.o
timer3_pin_mask                                   ./src/DuinoBotKids.v1.xx_0022/Tone.o
timer3_pin_port                                   ./src/DuinoBotKids.v1.xx_0022/Tone.o
timer3_toggle_count                               ./src/DuinoBotKids.v1.xx_0022/Tone.o
timer4_pin_mask                                   ./src/DuinoBotKids.v1.xx_0022/Tone.o
timer4_pin_port                                   ./src/DuinoBotKids.v1.xx_0022/Tone.o
timer4_toggle_count                               ./src/DuinoBotKids.v1.xx_0022/Tone.o
timer5_pin_mask                                   ./src/DuinoBotKids.v1.xx_0022/Tone.o
timer5_pin_port                                   ./src/DuinoBotKids.v1.xx_0022/Tone.o
timer5_toggle_count                               ./src/DuinoBotKids.v1.xx_0022/Tone.o
tolower                                           /usr/lib/gcc/avr/4.5.3/../../../avr/lib/avr5/libc.a(tolower.o)
                                                  ./src/DuinoBotKids.v1.xx_0022/WString.o
tone(unsigned char, unsigned int, unsigned long)  ./src/DuinoBotKids.v1.xx_0022/Tone.o
                                                  ./src/robotProtocol/N6.o
toupper                                           /usr/lib/gcc/avr/4.5.3/../../../avr/lib/avr5/libc.a(toupper.o)
                                                  ./src/DuinoBotKids.v1.xx_0022/WString.o
ultoa                                             /usr/lib/gcc/avr/4.5.3/../../../avr/lib/avr5/libc.a(ultoa.o)
                                                  ./src/DuinoBotKids.v1.xx_0022/WString.o
vfprintf                                          /usr/lib/gcc/avr/4.5.3/../../../avr/lib/avr5/libc.a(vfprintf_std.o)
                                                  /usr/lib/gcc/avr/4.5.3/../../../avr/lib/avr5/libc.a(sprintf.o)
                                                  /usr/lib/gcc/avr/4.5.3/../../../avr/lib/avr5/libc.a(printf.o)
vtable for CDCSerial                              ./src/DuinoBotKids.v1.xx_0022/CDCSerial.o
vtable for HardwareSerial                         ./src/DuinoBotKids.v1.xx_0022/HardwareSerial.o
vtable for Print                                  ./src/DuinoBotKids.v1.xx_0022/Print.o
vtable for RobotProtocol::Command                 ./src/robotProtocol/Command.o
vtable for RobotProtocol::CommandAcceptedMessage  ./src/robotProtocol/messages/CommandAcceptedMessage.o
vtable for RobotProtocol::CommandErrorMessage     ./src/robotProtocol/messages/CommandErrorMessage.o
vtable for RobotProtocol::CommunicationStartAcknowledgeMessage ./src/robotProtocol/messages/CommunicationStartAcknowledgeMessage.o
vtable for RobotProtocol::CommunicationStartMessage ./src/robotProtocol/messages/CommunicationStartMessage.o
vtable for RobotProtocol::CommunicationStopMessage ./src/robotProtocol/messages/CommunicationStopMessage.o
vtable for RobotProtocol::DestinationReachedMessage ./src/robotProtocol/messages/DestinationReachedMessage.o
vtable for RobotProtocol::FollowLineCommand       ./src/robotProtocol/commands/FollowLineCommand.o
vtable for RobotProtocol::FollowLineMessage       ./src/robotProtocol/messages/FollowLineMessage.o
vtable for RobotProtocol::KeepAliveMessage        ./src/robotProtocol/messages/KeepAliveMessage.o
vtable for RobotProtocol::Message                 ./src/robotProtocol/Message.o
vtable for RobotProtocol::MessageManager          ./src/robotProtocol/MessageManager.o
vtable for RobotProtocol::MessageReceiver         ./src/robotProtocol/MessageReceiver.o
vtable for RobotProtocol::MessageSender           ./src/robotProtocol/MessageSender.o
vtable for RobotProtocol::N6                      ./src/robotProtocol/N6.o
vtable for RobotProtocol::ReadIRSensorsCommand    ./src/robotProtocol/commands/ReadIRSensorsCommand.o
vtable for RobotProtocol::ReadIRSensorsMessage    ./src/robotProtocol/messages/ReadIRSensorsMessage.o
vtable for RobotProtocol::ReadIRSensorsReplyMessage ./src/robotProtocol/messages/ReadIRSensorsReplyMessage.o
vtable for RobotProtocol::ReadUSSensorCommand     ./src/robotProtocol/commands/ReadUSSensorCommand.o
vtable for RobotProtocol::ReadUSSensorMessage     ./src/robotProtocol/messages/ReadUSSensorMessage.o
vtable for RobotProtocol::ReadUSSensorReplyMessage ./src/robotProtocol/messages/ReadUSSensorReplyMessage.o
vtable for RobotProtocol::ReusableMessageProxy    ./src/robotProtocol/messages/ReusableMessageProxy.o
vtable for RobotProtocol::RobotLostMessage        ./src/robotProtocol/messages/RobotLostMessage.o
vtable for RobotProtocol::RobotStatusMessage      ./src/robotProtocol/messages/RobotStatusMessage.o
vtable for RobotProtocol::SendKeepAliveCommand    ./src/robotProtocol/commands/SendKeepAliveCommand.o
vtable for RobotProtocol::SerialSenderReceiver    ./src/robotProtocol/SerialSenderReceiver.o
vtable for RobotProtocol::SetMotorSpeedCommand    ./src/robotProtocol/commands/SetMotorSpeedCommand.o
vtable for RobotProtocol::SetMotorSpeedMessage    ./src/robotProtocol/messages/SetMotorSpeedMessage.o
vtable for RobotProtocol::TurnAroundMessage       ./src/robotProtocol/messages/TurnAroundMessage.o
vtable for RobotProtocol::TurnCommand             ./src/robotProtocol/commands/TurnCommand.o
vtable for RobotProtocol::TurnLeftMessage         ./src/robotProtocol/messages/TurnLeftMessage.o
vtable for RobotProtocol::TurnRightMessage        ./src/robotProtocol/messages/TurnRightMessage.o
vtable for Stream                                 ./src/DuinoBotKids.v1.xx_0022/HardwareSerial.o
